ARM GAS  C:\Users\sangt\AppData\Local\Temp\cc5NRPvh.s 			page 1


   1              		.cpu cortex-m3
   2              		.arch armv7-m
   3              		.fpu softvfp
   4              		.eabi_attribute 20, 1
   5              		.eabi_attribute 21, 1
   6              		.eabi_attribute 23, 3
   7              		.eabi_attribute 24, 1
   8              		.eabi_attribute 25, 1
   9              		.eabi_attribute 26, 1
  10              		.eabi_attribute 30, 1
  11              		.eabi_attribute 34, 1
  12              		.eabi_attribute 18, 4
  13              		.file	"MY_NRF24.c"
  14              		.text
  15              	.Ltext0:
  16              		.cfi_sections	.debug_frame
  17              		.section	.text.NRF24_DelayMicroSeconds,"ax",%progbits
  18              		.align	1
  19              		.global	NRF24_DelayMicroSeconds
  20              		.syntax unified
  21              		.thumb
  22              		.thumb_func
  24              	NRF24_DelayMicroSeconds:
  25              	.LVL0:
  26              	.LFB75:
  27              		.file 1 "Drivers/NRF24L01/Src/MY_NRF24.c"
   1:Drivers/NRF24L01/Src/MY_NRF24.c **** /*
   2:Drivers/NRF24L01/Src/MY_NRF24.c **** Library:					NRF24L01/NRF24L01+
   3:Drivers/NRF24L01/Src/MY_NRF24.c **** Written by:				Mohamed Yaqoob (MYaqoobEmbedded YouTube
   4:Drivers/NRF24L01/Src/MY_NRF24.c **** Channel) Date Written:			10/11/2018 Last modified:
   5:Drivers/NRF24L01/Src/MY_NRF24.c **** -/-
   6:Drivers/NRF24L01/Src/MY_NRF24.c **** Description:			This is an STM32 device driver library for the
   7:Drivers/NRF24L01/Src/MY_NRF24.c **** NRF24L01 Nordic Radio transceiver, using STM HAL libraries
   8:Drivers/NRF24L01/Src/MY_NRF24.c **** 
   9:Drivers/NRF24L01/Src/MY_NRF24.c **** References:				This library was written based on the
  10:Drivers/NRF24L01/Src/MY_NRF24.c **** Arduino NRF24 Open-Source library by J. Coliz and the NRF24 datasheet
  11:Drivers/NRF24L01/Src/MY_NRF24.c ****                                                                                 - https://github.co
  12:Drivers/NRF24L01/Src/MY_NRF24.c ****                                                                                 - https://www.spark
  13:Drivers/NRF24L01/Src/MY_NRF24.c **** 
  14:Drivers/NRF24L01/Src/MY_NRF24.c **** * Copyright (C) 2018 - M. Yaqoob
  15:Drivers/NRF24L01/Src/MY_NRF24.c ****    This is a free software under the GNU license, you can redistribute it and/or
  16:Drivers/NRF24L01/Src/MY_NRF24.c **** modify it under the terms of the GNU General Public Licenseversion 3 as
  17:Drivers/NRF24L01/Src/MY_NRF24.c **** published by the Free Software Foundation.
  18:Drivers/NRF24L01/Src/MY_NRF24.c **** 
  19:Drivers/NRF24L01/Src/MY_NRF24.c ****    This software library is shared with puplic for educational purposes, without
  20:Drivers/NRF24L01/Src/MY_NRF24.c **** WARRANTY and Author is not liable for any damages caused directly or indirectly
  21:Drivers/NRF24L01/Src/MY_NRF24.c **** by this software, read more about this on the GNU General Public License.
  22:Drivers/NRF24L01/Src/MY_NRF24.c **** */
  23:Drivers/NRF24L01/Src/MY_NRF24.c **** 
  24:Drivers/NRF24L01/Src/MY_NRF24.c **** // List of header files
  25:Drivers/NRF24L01/Src/MY_NRF24.c **** #include "MY_NRF24.h"
  26:Drivers/NRF24L01/Src/MY_NRF24.c **** 
  27:Drivers/NRF24L01/Src/MY_NRF24.c **** //*** Variables declaration ***//
  28:Drivers/NRF24L01/Src/MY_NRF24.c **** #define MAX(x, y) (((x) > (y)) ? (x) : (y))
  29:Drivers/NRF24L01/Src/MY_NRF24.c **** #define MIN(x, y) (((x) < (y)) ? (x) : (y))
  30:Drivers/NRF24L01/Src/MY_NRF24.c **** #define _BOOL(x) (((x) > 0) ? 1 : 0)
  31:Drivers/NRF24L01/Src/MY_NRF24.c **** 
ARM GAS  C:\Users\sangt\AppData\Local\Temp\cc5NRPvh.s 			page 2


  32:Drivers/NRF24L01/Src/MY_NRF24.c **** //*** Library variables ***//
  33:Drivers/NRF24L01/Src/MY_NRF24.c **** static uint64_t pipe0_reading_address;
  34:Drivers/NRF24L01/Src/MY_NRF24.c **** static bool
  35:Drivers/NRF24L01/Src/MY_NRF24.c ****     ack_payload_available; /**< Whether there is an ack payload waiting */
  36:Drivers/NRF24L01/Src/MY_NRF24.c **** static uint8_t ack_payload_length; /**< Dynamic size of pending ack payload. */
  37:Drivers/NRF24L01/Src/MY_NRF24.c **** static uint8_t payload_size;       /**< Fixed size of payloads */
  38:Drivers/NRF24L01/Src/MY_NRF24.c **** static bool
  39:Drivers/NRF24L01/Src/MY_NRF24.c ****     dynamic_payloads_enabled; /**< Whether dynamic payloads are enabled. */
  40:Drivers/NRF24L01/Src/MY_NRF24.c **** static bool p_variant;        /* False for RF24L01 and true for RF24L01P */
  41:Drivers/NRF24L01/Src/MY_NRF24.c **** static bool wide_band;        /* 2Mbs data rate in use? */
  42:Drivers/NRF24L01/Src/MY_NRF24.c **** 
  43:Drivers/NRF24L01/Src/MY_NRF24.c **** //*** NRF24L01 pins and handles ***//
  44:Drivers/NRF24L01/Src/MY_NRF24.c **** // CE and CSN pins
  45:Drivers/NRF24L01/Src/MY_NRF24.c **** static GPIO_TypeDef *nrf24_PORT;
  46:Drivers/NRF24L01/Src/MY_NRF24.c **** static uint16_t nrf24_CSN_PIN;
  47:Drivers/NRF24L01/Src/MY_NRF24.c **** static uint16_t nrf24_CE_PIN;
  48:Drivers/NRF24L01/Src/MY_NRF24.c **** // SPI handle
  49:Drivers/NRF24L01/Src/MY_NRF24.c **** static SPI_HandleTypeDef nrf24_hspi;
  50:Drivers/NRF24L01/Src/MY_NRF24.c **** // Debugging UART handle
  51:Drivers/NRF24L01/Src/MY_NRF24.c **** static UART_HandleTypeDef nrf24_huart;
  52:Drivers/NRF24L01/Src/MY_NRF24.c **** 
  53:Drivers/NRF24L01/Src/MY_NRF24.c **** //**** Functions prototypes ****//
  54:Drivers/NRF24L01/Src/MY_NRF24.c **** // Microsecond delay function
  55:Drivers/NRF24L01/Src/MY_NRF24.c **** void NRF24_DelayMicroSeconds(uint32_t uSec) {
  28              		.loc 1 55 45 view -0
  29              		.cfi_startproc
  30              		@ args = 0, pretend = 0, frame = 0
  31              		@ frame_needed = 0, uses_anonymous_args = 0
  32              		@ link register save eliminated.
  56:Drivers/NRF24L01/Src/MY_NRF24.c ****     uint32_t uSecVar = uSec;
  33              		.loc 1 56 5 view .LVU1
  57:Drivers/NRF24L01/Src/MY_NRF24.c ****     uSecVar = uSecVar * ((SystemCoreClock / 1000000) / 3);
  34              		.loc 1 57 5 view .LVU2
  35              		.loc 1 57 54 is_stmt 0 view .LVU3
  36 0000 064B     		ldr	r3, .L3
  37 0002 1B68     		ldr	r3, [r3]
  38 0004 064A     		ldr	r2, .L3+4
  39 0006 A2FB0323 		umull	r2, r3, r2, r3
  40 000a 9B0C     		lsrs	r3, r3, #18
  41              		.loc 1 57 13 view .LVU4
  42 000c 03FB00F0 		mul	r0, r3, r0
  43              	.LVL1:
  58:Drivers/NRF24L01/Src/MY_NRF24.c ****     while (uSecVar--)
  44              		.loc 1 58 5 is_stmt 1 view .LVU5
  45              	.L2:
  59:Drivers/NRF24L01/Src/MY_NRF24.c ****         ;
  46              		.loc 1 59 9 discriminator 1 view .LVU6
  58:Drivers/NRF24L01/Src/MY_NRF24.c ****     while (uSecVar--)
  47              		.loc 1 58 11 discriminator 1 view .LVU7
  48 0010 0346     		mov	r3, r0
  58:Drivers/NRF24L01/Src/MY_NRF24.c ****     while (uSecVar--)
  49              		.loc 1 58 19 is_stmt 0 discriminator 1 view .LVU8
  50 0012 0138     		subs	r0, r0, #1
  51              	.LVL2:
  58:Drivers/NRF24L01/Src/MY_NRF24.c ****     while (uSecVar--)
  52              		.loc 1 58 11 discriminator 1 view .LVU9
  53 0014 002B     		cmp	r3, #0
ARM GAS  C:\Users\sangt\AppData\Local\Temp\cc5NRPvh.s 			page 3


  54 0016 FBD1     		bne	.L2
  60:Drivers/NRF24L01/Src/MY_NRF24.c **** }
  55              		.loc 1 60 1 view .LVU10
  56 0018 7047     		bx	lr
  57              	.L4:
  58 001a 00BF     		.align	2
  59              	.L3:
  60 001c 00000000 		.word	SystemCoreClock
  61 0020 819F5E16 		.word	375299969
  62              		.cfi_endproc
  63              	.LFE75:
  65              		.section	.text.NRF24_csn,"ax",%progbits
  66              		.align	1
  67              		.global	NRF24_csn
  68              		.syntax unified
  69              		.thumb
  70              		.thumb_func
  72              	NRF24_csn:
  73              	.LVL3:
  74              	.LFB76:
  61:Drivers/NRF24L01/Src/MY_NRF24.c **** 
  62:Drivers/NRF24L01/Src/MY_NRF24.c **** // 1. Chip Select function
  63:Drivers/NRF24L01/Src/MY_NRF24.c **** void NRF24_csn(int state) {
  75              		.loc 1 63 27 is_stmt 1 view -0
  76              		.cfi_startproc
  77              		@ args = 0, pretend = 0, frame = 0
  78              		@ frame_needed = 0, uses_anonymous_args = 0
  79              		.loc 1 63 27 is_stmt 0 view .LVU12
  80 0000 08B5     		push	{r3, lr}
  81              	.LCFI0:
  82              		.cfi_def_cfa_offset 8
  83              		.cfi_offset 3, -8
  84              		.cfi_offset 14, -4
  64:Drivers/NRF24L01/Src/MY_NRF24.c ****     if (state)
  85              		.loc 1 64 5 is_stmt 1 view .LVU13
  86              		.loc 1 64 8 is_stmt 0 view .LVU14
  87 0002 38B1     		cbz	r0, .L6
  65:Drivers/NRF24L01/Src/MY_NRF24.c ****         HAL_GPIO_WritePin(nrf24_PORT, nrf24_CSN_PIN, GPIO_PIN_SET);
  88              		.loc 1 65 9 is_stmt 1 view .LVU15
  89 0004 0122     		movs	r2, #1
  90 0006 074B     		ldr	r3, .L9
  91 0008 1988     		ldrh	r1, [r3]
  92 000a 074B     		ldr	r3, .L9+4
  93 000c 1868     		ldr	r0, [r3]
  94              	.LVL4:
  95              		.loc 1 65 9 is_stmt 0 view .LVU16
  96 000e FFF7FEFF 		bl	HAL_GPIO_WritePin
  97              	.LVL5:
  98              	.L5:
  66:Drivers/NRF24L01/Src/MY_NRF24.c ****     else
  67:Drivers/NRF24L01/Src/MY_NRF24.c ****         HAL_GPIO_WritePin(nrf24_PORT, nrf24_CSN_PIN, GPIO_PIN_RESET);
  68:Drivers/NRF24L01/Src/MY_NRF24.c **** }
  99              		.loc 1 68 1 view .LVU17
 100 0012 08BD     		pop	{r3, pc}
 101              	.LVL6:
 102              	.L6:
  67:Drivers/NRF24L01/Src/MY_NRF24.c **** }
ARM GAS  C:\Users\sangt\AppData\Local\Temp\cc5NRPvh.s 			page 4


 103              		.loc 1 67 9 is_stmt 1 view .LVU18
 104 0014 0022     		movs	r2, #0
 105 0016 034B     		ldr	r3, .L9
 106 0018 1988     		ldrh	r1, [r3]
 107 001a 034B     		ldr	r3, .L9+4
 108 001c 1868     		ldr	r0, [r3]
 109              	.LVL7:
  67:Drivers/NRF24L01/Src/MY_NRF24.c **** }
 110              		.loc 1 67 9 is_stmt 0 view .LVU19
 111 001e FFF7FEFF 		bl	HAL_GPIO_WritePin
 112              	.LVL8:
 113              		.loc 1 68 1 view .LVU20
 114 0022 F6E7     		b	.L5
 115              	.L10:
 116              		.align	2
 117              	.L9:
 118 0024 00000000 		.word	.LANCHOR0
 119 0028 00000000 		.word	.LANCHOR1
 120              		.cfi_endproc
 121              	.LFE76:
 123              		.section	.text.NRF24_ce,"ax",%progbits
 124              		.align	1
 125              		.global	NRF24_ce
 126              		.syntax unified
 127              		.thumb
 128              		.thumb_func
 130              	NRF24_ce:
 131              	.LVL9:
 132              	.LFB77:
  69:Drivers/NRF24L01/Src/MY_NRF24.c **** // 2. Chip Enable
  70:Drivers/NRF24L01/Src/MY_NRF24.c **** void NRF24_ce(int state) {
 133              		.loc 1 70 26 is_stmt 1 view -0
 134              		.cfi_startproc
 135              		@ args = 0, pretend = 0, frame = 0
 136              		@ frame_needed = 0, uses_anonymous_args = 0
 137              		.loc 1 70 26 is_stmt 0 view .LVU22
 138 0000 08B5     		push	{r3, lr}
 139              	.LCFI1:
 140              		.cfi_def_cfa_offset 8
 141              		.cfi_offset 3, -8
 142              		.cfi_offset 14, -4
  71:Drivers/NRF24L01/Src/MY_NRF24.c ****     if (state)
 143              		.loc 1 71 5 is_stmt 1 view .LVU23
 144              		.loc 1 71 8 is_stmt 0 view .LVU24
 145 0002 38B1     		cbz	r0, .L12
  72:Drivers/NRF24L01/Src/MY_NRF24.c ****         HAL_GPIO_WritePin(nrf24_PORT, nrf24_CE_PIN, GPIO_PIN_SET);
 146              		.loc 1 72 9 is_stmt 1 view .LVU25
 147 0004 0122     		movs	r2, #1
 148 0006 074B     		ldr	r3, .L15
 149 0008 1988     		ldrh	r1, [r3]
 150 000a 074B     		ldr	r3, .L15+4
 151 000c 1868     		ldr	r0, [r3]
 152              	.LVL10:
 153              		.loc 1 72 9 is_stmt 0 view .LVU26
 154 000e FFF7FEFF 		bl	HAL_GPIO_WritePin
 155              	.LVL11:
 156              	.L11:
ARM GAS  C:\Users\sangt\AppData\Local\Temp\cc5NRPvh.s 			page 5


  73:Drivers/NRF24L01/Src/MY_NRF24.c ****     else
  74:Drivers/NRF24L01/Src/MY_NRF24.c ****         HAL_GPIO_WritePin(nrf24_PORT, nrf24_CE_PIN, GPIO_PIN_RESET);
  75:Drivers/NRF24L01/Src/MY_NRF24.c **** }
 157              		.loc 1 75 1 view .LVU27
 158 0012 08BD     		pop	{r3, pc}
 159              	.LVL12:
 160              	.L12:
  74:Drivers/NRF24L01/Src/MY_NRF24.c **** }
 161              		.loc 1 74 9 is_stmt 1 view .LVU28
 162 0014 0022     		movs	r2, #0
 163 0016 034B     		ldr	r3, .L15
 164 0018 1988     		ldrh	r1, [r3]
 165 001a 034B     		ldr	r3, .L15+4
 166 001c 1868     		ldr	r0, [r3]
 167              	.LVL13:
  74:Drivers/NRF24L01/Src/MY_NRF24.c **** }
 168              		.loc 1 74 9 is_stmt 0 view .LVU29
 169 001e FFF7FEFF 		bl	HAL_GPIO_WritePin
 170              	.LVL14:
 171              		.loc 1 75 1 view .LVU30
 172 0022 F6E7     		b	.L11
 173              	.L16:
 174              		.align	2
 175              	.L15:
 176 0024 00000000 		.word	.LANCHOR2
 177 0028 00000000 		.word	.LANCHOR1
 178              		.cfi_endproc
 179              	.LFE77:
 181              		.section	.text.NRF24_read_register,"ax",%progbits
 182              		.align	1
 183              		.global	NRF24_read_register
 184              		.syntax unified
 185              		.thumb
 186              		.thumb_func
 188              	NRF24_read_register:
 189              	.LVL15:
 190              	.LFB78:
  76:Drivers/NRF24L01/Src/MY_NRF24.c **** // 3. Read single byte from a register
  77:Drivers/NRF24L01/Src/MY_NRF24.c **** uint8_t NRF24_read_register(uint8_t reg) {
 191              		.loc 1 77 42 is_stmt 1 view -0
 192              		.cfi_startproc
 193              		@ args = 0, pretend = 0, frame = 8
 194              		@ frame_needed = 0, uses_anonymous_args = 0
 195              		.loc 1 77 42 is_stmt 0 view .LVU32
 196 0000 10B5     		push	{r4, lr}
 197              	.LCFI2:
 198              		.cfi_def_cfa_offset 8
 199              		.cfi_offset 4, -8
 200              		.cfi_offset 14, -4
 201 0002 82B0     		sub	sp, sp, #8
 202              	.LCFI3:
 203              		.cfi_def_cfa_offset 16
 204 0004 0446     		mov	r4, r0
  78:Drivers/NRF24L01/Src/MY_NRF24.c ****     uint8_t spiBuf[3];
 205              		.loc 1 78 5 is_stmt 1 view .LVU33
  79:Drivers/NRF24L01/Src/MY_NRF24.c ****     uint8_t retData;
 206              		.loc 1 79 5 view .LVU34
ARM GAS  C:\Users\sangt\AppData\Local\Temp\cc5NRPvh.s 			page 6


  80:Drivers/NRF24L01/Src/MY_NRF24.c ****     // Put CSN low
  81:Drivers/NRF24L01/Src/MY_NRF24.c ****     NRF24_csn(0);
 207              		.loc 1 81 5 view .LVU35
 208 0006 0020     		movs	r0, #0
 209              	.LVL16:
 210              		.loc 1 81 5 is_stmt 0 view .LVU36
 211 0008 FFF7FEFF 		bl	NRF24_csn
 212              	.LVL17:
  82:Drivers/NRF24L01/Src/MY_NRF24.c ****     // Transmit register address
  83:Drivers/NRF24L01/Src/MY_NRF24.c ****     spiBuf[0] = reg & 0x1F;
 213              		.loc 1 83 5 is_stmt 1 view .LVU37
 214              		.loc 1 83 21 is_stmt 0 view .LVU38
 215 000c 04F01F04 		and	r4, r4, #31
 216              		.loc 1 83 15 view .LVU39
 217 0010 8DF80440 		strb	r4, [sp, #4]
  84:Drivers/NRF24L01/Src/MY_NRF24.c ****     HAL_SPI_Transmit(&nrf24_hspi, spiBuf, 1, 100);
 218              		.loc 1 84 5 is_stmt 1 view .LVU40
 219 0014 0A4C     		ldr	r4, .L19
 220 0016 6423     		movs	r3, #100
 221 0018 0122     		movs	r2, #1
 222 001a 01A9     		add	r1, sp, #4
 223 001c 2046     		mov	r0, r4
 224 001e FFF7FEFF 		bl	HAL_SPI_Transmit
 225              	.LVL18:
  85:Drivers/NRF24L01/Src/MY_NRF24.c ****     // Receive data
  86:Drivers/NRF24L01/Src/MY_NRF24.c ****     HAL_SPI_Receive(&nrf24_hspi, &spiBuf[1], 1, 100);
 226              		.loc 1 86 5 view .LVU41
 227 0022 6423     		movs	r3, #100
 228 0024 0122     		movs	r2, #1
 229 0026 0DF10501 		add	r1, sp, #5
 230 002a 2046     		mov	r0, r4
 231 002c FFF7FEFF 		bl	HAL_SPI_Receive
 232              	.LVL19:
  87:Drivers/NRF24L01/Src/MY_NRF24.c ****     retData = spiBuf[1];
 233              		.loc 1 87 5 view .LVU42
 234              		.loc 1 87 13 is_stmt 0 view .LVU43
 235 0030 9DF80540 		ldrb	r4, [sp, #5]	@ zero_extendqisi2
 236              	.LVL20:
  88:Drivers/NRF24L01/Src/MY_NRF24.c ****     // Bring CSN high
  89:Drivers/NRF24L01/Src/MY_NRF24.c ****     NRF24_csn(1);
 237              		.loc 1 89 5 is_stmt 1 view .LVU44
 238 0034 0120     		movs	r0, #1
 239 0036 FFF7FEFF 		bl	NRF24_csn
 240              	.LVL21:
  90:Drivers/NRF24L01/Src/MY_NRF24.c ****     return retData;
 241              		.loc 1 90 5 view .LVU45
  91:Drivers/NRF24L01/Src/MY_NRF24.c **** }
 242              		.loc 1 91 1 is_stmt 0 view .LVU46
 243 003a 2046     		mov	r0, r4
 244 003c 02B0     		add	sp, sp, #8
 245              	.LCFI4:
 246              		.cfi_def_cfa_offset 8
 247              		@ sp needed
 248 003e 10BD     		pop	{r4, pc}
 249              	.LVL22:
 250              	.L20:
 251              		.loc 1 91 1 view .LVU47
ARM GAS  C:\Users\sangt\AppData\Local\Temp\cc5NRPvh.s 			page 7


 252              		.align	2
 253              	.L19:
 254 0040 00000000 		.word	.LANCHOR3
 255              		.cfi_endproc
 256              	.LFE78:
 258              		.section	.text.NRF24_read_registerN,"ax",%progbits
 259              		.align	1
 260              		.global	NRF24_read_registerN
 261              		.syntax unified
 262              		.thumb
 263              		.thumb_func
 265              	NRF24_read_registerN:
 266              	.LVL23:
 267              	.LFB79:
  92:Drivers/NRF24L01/Src/MY_NRF24.c **** // 4. Read multiple bytes register
  93:Drivers/NRF24L01/Src/MY_NRF24.c **** void NRF24_read_registerN(uint8_t reg, uint8_t *buf, uint8_t len) {
 268              		.loc 1 93 67 is_stmt 1 view -0
 269              		.cfi_startproc
 270              		@ args = 0, pretend = 0, frame = 8
 271              		@ frame_needed = 0, uses_anonymous_args = 0
 272              		.loc 1 93 67 is_stmt 0 view .LVU49
 273 0000 70B5     		push	{r4, r5, r6, lr}
 274              	.LCFI5:
 275              		.cfi_def_cfa_offset 16
 276              		.cfi_offset 4, -16
 277              		.cfi_offset 5, -12
 278              		.cfi_offset 6, -8
 279              		.cfi_offset 14, -4
 280 0002 82B0     		sub	sp, sp, #8
 281              	.LCFI6:
 282              		.cfi_def_cfa_offset 24
 283 0004 0446     		mov	r4, r0
 284 0006 0D46     		mov	r5, r1
 285 0008 1646     		mov	r6, r2
  94:Drivers/NRF24L01/Src/MY_NRF24.c ****     uint8_t spiBuf[3];
 286              		.loc 1 94 5 is_stmt 1 view .LVU50
  95:Drivers/NRF24L01/Src/MY_NRF24.c ****     // Put CSN low
  96:Drivers/NRF24L01/Src/MY_NRF24.c ****     NRF24_csn(0);
 287              		.loc 1 96 5 view .LVU51
 288 000a 0020     		movs	r0, #0
 289              	.LVL24:
 290              		.loc 1 96 5 is_stmt 0 view .LVU52
 291 000c FFF7FEFF 		bl	NRF24_csn
 292              	.LVL25:
  97:Drivers/NRF24L01/Src/MY_NRF24.c ****     // Transmit register address
  98:Drivers/NRF24L01/Src/MY_NRF24.c ****     spiBuf[0] = reg & 0x1F;
 293              		.loc 1 98 5 is_stmt 1 view .LVU53
 294              		.loc 1 98 21 is_stmt 0 view .LVU54
 295 0010 04F01F04 		and	r4, r4, #31
 296              		.loc 1 98 15 view .LVU55
 297 0014 8DF80440 		strb	r4, [sp, #4]
  99:Drivers/NRF24L01/Src/MY_NRF24.c ****     // spiStatus = NRF24_SPI_Write(spiBuf, 1);
 100:Drivers/NRF24L01/Src/MY_NRF24.c ****     HAL_SPI_Transmit(&nrf24_hspi, spiBuf, 1, 100);
 298              		.loc 1 100 5 is_stmt 1 view .LVU56
 299 0018 084C     		ldr	r4, .L23
 300 001a 6423     		movs	r3, #100
 301 001c 0122     		movs	r2, #1
ARM GAS  C:\Users\sangt\AppData\Local\Temp\cc5NRPvh.s 			page 8


 302 001e 01A9     		add	r1, sp, #4
 303 0020 2046     		mov	r0, r4
 304 0022 FFF7FEFF 		bl	HAL_SPI_Transmit
 305              	.LVL26:
 101:Drivers/NRF24L01/Src/MY_NRF24.c ****     // Receive data
 102:Drivers/NRF24L01/Src/MY_NRF24.c ****     HAL_SPI_Receive(&nrf24_hspi, buf, len, 100);
 306              		.loc 1 102 5 view .LVU57
 307 0026 6423     		movs	r3, #100
 308 0028 3246     		mov	r2, r6
 309 002a 2946     		mov	r1, r5
 310 002c 2046     		mov	r0, r4
 311 002e FFF7FEFF 		bl	HAL_SPI_Receive
 312              	.LVL27:
 103:Drivers/NRF24L01/Src/MY_NRF24.c ****     // Bring CSN high
 104:Drivers/NRF24L01/Src/MY_NRF24.c ****     NRF24_csn(1);
 313              		.loc 1 104 5 view .LVU58
 314 0032 0120     		movs	r0, #1
 315 0034 FFF7FEFF 		bl	NRF24_csn
 316              	.LVL28:
 105:Drivers/NRF24L01/Src/MY_NRF24.c **** }
 317              		.loc 1 105 1 is_stmt 0 view .LVU59
 318 0038 02B0     		add	sp, sp, #8
 319              	.LCFI7:
 320              		.cfi_def_cfa_offset 16
 321              		@ sp needed
 322 003a 70BD     		pop	{r4, r5, r6, pc}
 323              	.LVL29:
 324              	.L24:
 325              		.loc 1 105 1 view .LVU60
 326              		.align	2
 327              	.L23:
 328 003c 00000000 		.word	.LANCHOR3
 329              		.cfi_endproc
 330              	.LFE79:
 332              		.section	.text.NRF24_write_register,"ax",%progbits
 333              		.align	1
 334              		.global	NRF24_write_register
 335              		.syntax unified
 336              		.thumb
 337              		.thumb_func
 339              	NRF24_write_register:
 340              	.LVL30:
 341              	.LFB80:
 106:Drivers/NRF24L01/Src/MY_NRF24.c **** // 5. Write single byte register
 107:Drivers/NRF24L01/Src/MY_NRF24.c **** void NRF24_write_register(uint8_t reg, uint8_t value) {
 342              		.loc 1 107 55 is_stmt 1 view -0
 343              		.cfi_startproc
 344              		@ args = 0, pretend = 0, frame = 8
 345              		@ frame_needed = 0, uses_anonymous_args = 0
 346              		.loc 1 107 55 is_stmt 0 view .LVU62
 347 0000 30B5     		push	{r4, r5, lr}
 348              	.LCFI8:
 349              		.cfi_def_cfa_offset 12
 350              		.cfi_offset 4, -12
 351              		.cfi_offset 5, -8
 352              		.cfi_offset 14, -4
 353 0002 83B0     		sub	sp, sp, #12
ARM GAS  C:\Users\sangt\AppData\Local\Temp\cc5NRPvh.s 			page 9


 354              	.LCFI9:
 355              		.cfi_def_cfa_offset 24
 356 0004 0446     		mov	r4, r0
 357 0006 0D46     		mov	r5, r1
 108:Drivers/NRF24L01/Src/MY_NRF24.c ****     uint8_t spiBuf[3];
 358              		.loc 1 108 5 is_stmt 1 view .LVU63
 109:Drivers/NRF24L01/Src/MY_NRF24.c ****     // Put CSN low
 110:Drivers/NRF24L01/Src/MY_NRF24.c ****     NRF24_csn(0);
 359              		.loc 1 110 5 view .LVU64
 360 0008 0020     		movs	r0, #0
 361              	.LVL31:
 362              		.loc 1 110 5 is_stmt 0 view .LVU65
 363 000a FFF7FEFF 		bl	NRF24_csn
 364              	.LVL32:
 111:Drivers/NRF24L01/Src/MY_NRF24.c ****     // Transmit register address and data
 112:Drivers/NRF24L01/Src/MY_NRF24.c ****     spiBuf[0] = reg | 0x20;
 365              		.loc 1 112 5 is_stmt 1 view .LVU66
 366              		.loc 1 112 15 is_stmt 0 view .LVU67
 367 000e 44F02004 		orr	r4, r4, #32
 368 0012 8DF80440 		strb	r4, [sp, #4]
 113:Drivers/NRF24L01/Src/MY_NRF24.c ****     spiBuf[1] = value;
 369              		.loc 1 113 5 is_stmt 1 view .LVU68
 370              		.loc 1 113 15 is_stmt 0 view .LVU69
 371 0016 8DF80550 		strb	r5, [sp, #5]
 114:Drivers/NRF24L01/Src/MY_NRF24.c ****     HAL_SPI_Transmit(&nrf24_hspi, spiBuf, 2, 100);
 372              		.loc 1 114 5 is_stmt 1 view .LVU70
 373 001a 6423     		movs	r3, #100
 374 001c 0222     		movs	r2, #2
 375 001e 01A9     		add	r1, sp, #4
 376 0020 0348     		ldr	r0, .L27
 377 0022 FFF7FEFF 		bl	HAL_SPI_Transmit
 378              	.LVL33:
 115:Drivers/NRF24L01/Src/MY_NRF24.c ****     // Bring CSN high
 116:Drivers/NRF24L01/Src/MY_NRF24.c ****     NRF24_csn(1);
 379              		.loc 1 116 5 view .LVU71
 380 0026 0120     		movs	r0, #1
 381 0028 FFF7FEFF 		bl	NRF24_csn
 382              	.LVL34:
 117:Drivers/NRF24L01/Src/MY_NRF24.c **** }
 383              		.loc 1 117 1 is_stmt 0 view .LVU72
 384 002c 03B0     		add	sp, sp, #12
 385              	.LCFI10:
 386              		.cfi_def_cfa_offset 12
 387              		@ sp needed
 388 002e 30BD     		pop	{r4, r5, pc}
 389              	.L28:
 390              		.align	2
 391              	.L27:
 392 0030 00000000 		.word	.LANCHOR3
 393              		.cfi_endproc
 394              	.LFE80:
 396              		.section	.text.NRF24_write_registerN,"ax",%progbits
 397              		.align	1
 398              		.global	NRF24_write_registerN
 399              		.syntax unified
 400              		.thumb
 401              		.thumb_func
ARM GAS  C:\Users\sangt\AppData\Local\Temp\cc5NRPvh.s 			page 10


 403              	NRF24_write_registerN:
 404              	.LVL35:
 405              	.LFB81:
 118:Drivers/NRF24L01/Src/MY_NRF24.c **** // 6. Write multipl bytes register
 119:Drivers/NRF24L01/Src/MY_NRF24.c **** void NRF24_write_registerN(uint8_t reg, const uint8_t *buf, uint8_t len) {
 406              		.loc 1 119 74 is_stmt 1 view -0
 407              		.cfi_startproc
 408              		@ args = 0, pretend = 0, frame = 8
 409              		@ frame_needed = 0, uses_anonymous_args = 0
 410              		.loc 1 119 74 is_stmt 0 view .LVU74
 411 0000 70B5     		push	{r4, r5, r6, lr}
 412              	.LCFI11:
 413              		.cfi_def_cfa_offset 16
 414              		.cfi_offset 4, -16
 415              		.cfi_offset 5, -12
 416              		.cfi_offset 6, -8
 417              		.cfi_offset 14, -4
 418 0002 82B0     		sub	sp, sp, #8
 419              	.LCFI12:
 420              		.cfi_def_cfa_offset 24
 421 0004 0446     		mov	r4, r0
 422 0006 0D46     		mov	r5, r1
 423 0008 1646     		mov	r6, r2
 120:Drivers/NRF24L01/Src/MY_NRF24.c ****     uint8_t spiBuf[3];
 424              		.loc 1 120 5 is_stmt 1 view .LVU75
 121:Drivers/NRF24L01/Src/MY_NRF24.c ****     // Put CSN low
 122:Drivers/NRF24L01/Src/MY_NRF24.c ****     NRF24_csn(0);
 425              		.loc 1 122 5 view .LVU76
 426 000a 0020     		movs	r0, #0
 427              	.LVL36:
 428              		.loc 1 122 5 is_stmt 0 view .LVU77
 429 000c FFF7FEFF 		bl	NRF24_csn
 430              	.LVL37:
 123:Drivers/NRF24L01/Src/MY_NRF24.c ****     // Transmit register address and data
 124:Drivers/NRF24L01/Src/MY_NRF24.c ****     spiBuf[0] = reg | 0x20;
 431              		.loc 1 124 5 is_stmt 1 view .LVU78
 432              		.loc 1 124 15 is_stmt 0 view .LVU79
 433 0010 44F02004 		orr	r4, r4, #32
 434 0014 8DF80440 		strb	r4, [sp, #4]
 125:Drivers/NRF24L01/Src/MY_NRF24.c ****     HAL_SPI_Transmit(&nrf24_hspi, spiBuf, 1, 100);
 435              		.loc 1 125 5 is_stmt 1 view .LVU80
 436 0018 084C     		ldr	r4, .L31
 437 001a 6423     		movs	r3, #100
 438 001c 0122     		movs	r2, #1
 439 001e 01A9     		add	r1, sp, #4
 440 0020 2046     		mov	r0, r4
 441 0022 FFF7FEFF 		bl	HAL_SPI_Transmit
 442              	.LVL38:
 126:Drivers/NRF24L01/Src/MY_NRF24.c ****     HAL_SPI_Transmit(&nrf24_hspi, (uint8_t *)buf, len, 100);
 443              		.loc 1 126 5 view .LVU81
 444 0026 6423     		movs	r3, #100
 445 0028 3246     		mov	r2, r6
 446 002a 2946     		mov	r1, r5
 447 002c 2046     		mov	r0, r4
 448 002e FFF7FEFF 		bl	HAL_SPI_Transmit
 449              	.LVL39:
 127:Drivers/NRF24L01/Src/MY_NRF24.c ****     // Bring CSN high
ARM GAS  C:\Users\sangt\AppData\Local\Temp\cc5NRPvh.s 			page 11


 128:Drivers/NRF24L01/Src/MY_NRF24.c ****     NRF24_csn(1);
 450              		.loc 1 128 5 view .LVU82
 451 0032 0120     		movs	r0, #1
 452 0034 FFF7FEFF 		bl	NRF24_csn
 453              	.LVL40:
 129:Drivers/NRF24L01/Src/MY_NRF24.c **** }
 454              		.loc 1 129 1 is_stmt 0 view .LVU83
 455 0038 02B0     		add	sp, sp, #8
 456              	.LCFI13:
 457              		.cfi_def_cfa_offset 16
 458              		@ sp needed
 459 003a 70BD     		pop	{r4, r5, r6, pc}
 460              	.LVL41:
 461              	.L32:
 462              		.loc 1 129 1 view .LVU84
 463              		.align	2
 464              	.L31:
 465 003c 00000000 		.word	.LANCHOR3
 466              		.cfi_endproc
 467              	.LFE81:
 469              		.section	.text.NRF24_write_payload,"ax",%progbits
 470              		.align	1
 471              		.global	NRF24_write_payload
 472              		.syntax unified
 473              		.thumb
 474              		.thumb_func
 476              	NRF24_write_payload:
 477              	.LVL42:
 478              	.LFB82:
 130:Drivers/NRF24L01/Src/MY_NRF24.c **** // 7. Write transmit payload
 131:Drivers/NRF24L01/Src/MY_NRF24.c **** void NRF24_write_payload(const void *buf, uint8_t len) {
 479              		.loc 1 131 56 is_stmt 1 view -0
 480              		.cfi_startproc
 481              		@ args = 0, pretend = 0, frame = 8
 482              		@ frame_needed = 0, uses_anonymous_args = 0
 483              		.loc 1 131 56 is_stmt 0 view .LVU86
 484 0000 70B5     		push	{r4, r5, r6, lr}
 485              	.LCFI14:
 486              		.cfi_def_cfa_offset 16
 487              		.cfi_offset 4, -16
 488              		.cfi_offset 5, -12
 489              		.cfi_offset 6, -8
 490              		.cfi_offset 14, -4
 491 0002 82B0     		sub	sp, sp, #8
 492              	.LCFI15:
 493              		.cfi_def_cfa_offset 24
 494 0004 0446     		mov	r4, r0
 495 0006 0D46     		mov	r5, r1
 132:Drivers/NRF24L01/Src/MY_NRF24.c ****     uint8_t wrPayloadCmd;
 496              		.loc 1 132 5 is_stmt 1 view .LVU87
 133:Drivers/NRF24L01/Src/MY_NRF24.c ****     // Bring CSN low
 134:Drivers/NRF24L01/Src/MY_NRF24.c ****     NRF24_csn(0);
 497              		.loc 1 134 5 view .LVU88
 498 0008 0020     		movs	r0, #0
 499              	.LVL43:
 500              		.loc 1 134 5 is_stmt 0 view .LVU89
 501 000a FFF7FEFF 		bl	NRF24_csn
ARM GAS  C:\Users\sangt\AppData\Local\Temp\cc5NRPvh.s 			page 12


 502              	.LVL44:
 135:Drivers/NRF24L01/Src/MY_NRF24.c ****     // Send Write Tx payload command followed by pbuf data
 136:Drivers/NRF24L01/Src/MY_NRF24.c ****     wrPayloadCmd = CMD_W_TX_PAYLOAD;
 503              		.loc 1 136 5 is_stmt 1 view .LVU90
 504              		.loc 1 136 18 is_stmt 0 view .LVU91
 505 000e A023     		movs	r3, #160
 506 0010 8DF80730 		strb	r3, [sp, #7]
 137:Drivers/NRF24L01/Src/MY_NRF24.c ****     HAL_SPI_Transmit(&nrf24_hspi, &wrPayloadCmd, 1, 100);
 507              		.loc 1 137 5 is_stmt 1 view .LVU92
 508 0014 094E     		ldr	r6, .L35
 509 0016 6423     		movs	r3, #100
 510 0018 0122     		movs	r2, #1
 511 001a 0DF10701 		add	r1, sp, #7
 512 001e 3046     		mov	r0, r6
 513 0020 FFF7FEFF 		bl	HAL_SPI_Transmit
 514              	.LVL45:
 138:Drivers/NRF24L01/Src/MY_NRF24.c ****     HAL_SPI_Transmit(&nrf24_hspi, (uint8_t *)buf, len, 100);
 515              		.loc 1 138 5 view .LVU93
 516 0024 6423     		movs	r3, #100
 517 0026 2A46     		mov	r2, r5
 518 0028 2146     		mov	r1, r4
 519 002a 3046     		mov	r0, r6
 520 002c FFF7FEFF 		bl	HAL_SPI_Transmit
 521              	.LVL46:
 139:Drivers/NRF24L01/Src/MY_NRF24.c ****     // Bring CSN high
 140:Drivers/NRF24L01/Src/MY_NRF24.c ****     NRF24_csn(1);
 522              		.loc 1 140 5 view .LVU94
 523 0030 0120     		movs	r0, #1
 524 0032 FFF7FEFF 		bl	NRF24_csn
 525              	.LVL47:
 141:Drivers/NRF24L01/Src/MY_NRF24.c **** }
 526              		.loc 1 141 1 is_stmt 0 view .LVU95
 527 0036 02B0     		add	sp, sp, #8
 528              	.LCFI16:
 529              		.cfi_def_cfa_offset 16
 530              		@ sp needed
 531 0038 70BD     		pop	{r4, r5, r6, pc}
 532              	.LVL48:
 533              	.L36:
 534              		.loc 1 141 1 view .LVU96
 535 003a 00BF     		.align	2
 536              	.L35:
 537 003c 00000000 		.word	.LANCHOR3
 538              		.cfi_endproc
 539              	.LFE82:
 541              		.section	.text.NRF24_flush_tx,"ax",%progbits
 542              		.align	1
 543              		.global	NRF24_flush_tx
 544              		.syntax unified
 545              		.thumb
 546              		.thumb_func
 548              	NRF24_flush_tx:
 549              	.LFB84:
 142:Drivers/NRF24L01/Src/MY_NRF24.c **** // 8. Read receive payload
 143:Drivers/NRF24L01/Src/MY_NRF24.c **** void NRF24_read_payload(void *buf, uint8_t len) {
 144:Drivers/NRF24L01/Src/MY_NRF24.c ****     uint8_t cmdRxBuf;
 145:Drivers/NRF24L01/Src/MY_NRF24.c ****     // Get data length using payload size
ARM GAS  C:\Users\sangt\AppData\Local\Temp\cc5NRPvh.s 			page 13


 146:Drivers/NRF24L01/Src/MY_NRF24.c ****     uint8_t data_len = MIN(len, NRF24_getPayloadSize());
 147:Drivers/NRF24L01/Src/MY_NRF24.c ****     // Read data from Rx payload buffer
 148:Drivers/NRF24L01/Src/MY_NRF24.c ****     NRF24_csn(0);
 149:Drivers/NRF24L01/Src/MY_NRF24.c ****     cmdRxBuf = CMD_R_RX_PAYLOAD;
 150:Drivers/NRF24L01/Src/MY_NRF24.c ****     HAL_SPI_Transmit(&nrf24_hspi, &cmdRxBuf, 1, 100);
 151:Drivers/NRF24L01/Src/MY_NRF24.c ****     HAL_SPI_Receive(&nrf24_hspi, buf, data_len, 100);
 152:Drivers/NRF24L01/Src/MY_NRF24.c ****     NRF24_csn(1);
 153:Drivers/NRF24L01/Src/MY_NRF24.c **** }
 154:Drivers/NRF24L01/Src/MY_NRF24.c **** 
 155:Drivers/NRF24L01/Src/MY_NRF24.c **** // 9. Flush Tx buffer
 156:Drivers/NRF24L01/Src/MY_NRF24.c **** void NRF24_flush_tx(void) { NRF24_write_register(CMD_FLUSH_TX, 0xFF); }
 550              		.loc 1 156 27 is_stmt 1 view -0
 551              		.cfi_startproc
 552              		@ args = 0, pretend = 0, frame = 0
 553              		@ frame_needed = 0, uses_anonymous_args = 0
 554 0000 08B5     		push	{r3, lr}
 555              	.LCFI17:
 556              		.cfi_def_cfa_offset 8
 557              		.cfi_offset 3, -8
 558              		.cfi_offset 14, -4
 559              		.loc 1 156 29 view .LVU98
 560 0002 FF21     		movs	r1, #255
 561 0004 E120     		movs	r0, #225
 562 0006 FFF7FEFF 		bl	NRF24_write_register
 563              	.LVL49:
 564              		.loc 1 156 71 is_stmt 0 view .LVU99
 565 000a 08BD     		pop	{r3, pc}
 566              		.cfi_endproc
 567              	.LFE84:
 569              		.section	.text.NRF24_flush_rx,"ax",%progbits
 570              		.align	1
 571              		.global	NRF24_flush_rx
 572              		.syntax unified
 573              		.thumb
 574              		.thumb_func
 576              	NRF24_flush_rx:
 577              	.LFB85:
 157:Drivers/NRF24L01/Src/MY_NRF24.c **** // 10. Flush Rx buffer
 158:Drivers/NRF24L01/Src/MY_NRF24.c **** void NRF24_flush_rx(void) { NRF24_write_register(CMD_FLUSH_RX, 0xFF); }
 578              		.loc 1 158 27 is_stmt 1 view -0
 579              		.cfi_startproc
 580              		@ args = 0, pretend = 0, frame = 0
 581              		@ frame_needed = 0, uses_anonymous_args = 0
 582 0000 08B5     		push	{r3, lr}
 583              	.LCFI18:
 584              		.cfi_def_cfa_offset 8
 585              		.cfi_offset 3, -8
 586              		.cfi_offset 14, -4
 587              		.loc 1 158 29 view .LVU101
 588 0002 FF21     		movs	r1, #255
 589 0004 E220     		movs	r0, #226
 590 0006 FFF7FEFF 		bl	NRF24_write_register
 591              	.LVL50:
 592              		.loc 1 158 71 is_stmt 0 view .LVU102
 593 000a 08BD     		pop	{r3, pc}
 594              		.cfi_endproc
 595              	.LFE85:
ARM GAS  C:\Users\sangt\AppData\Local\Temp\cc5NRPvh.s 			page 14


 597              		.section	.text.NRF24_get_status,"ax",%progbits
 598              		.align	1
 599              		.global	NRF24_get_status
 600              		.syntax unified
 601              		.thumb
 602              		.thumb_func
 604              	NRF24_get_status:
 605              	.LFB86:
 159:Drivers/NRF24L01/Src/MY_NRF24.c **** // 11. Get status register value
 160:Drivers/NRF24L01/Src/MY_NRF24.c **** uint8_t NRF24_get_status(void) {
 606              		.loc 1 160 32 is_stmt 1 view -0
 607              		.cfi_startproc
 608              		@ args = 0, pretend = 0, frame = 0
 609              		@ frame_needed = 0, uses_anonymous_args = 0
 610 0000 08B5     		push	{r3, lr}
 611              	.LCFI19:
 612              		.cfi_def_cfa_offset 8
 613              		.cfi_offset 3, -8
 614              		.cfi_offset 14, -4
 161:Drivers/NRF24L01/Src/MY_NRF24.c ****     uint8_t statReg;
 615              		.loc 1 161 5 view .LVU104
 162:Drivers/NRF24L01/Src/MY_NRF24.c ****     statReg = NRF24_read_register(REG_STATUS);
 616              		.loc 1 162 5 view .LVU105
 617              		.loc 1 162 15 is_stmt 0 view .LVU106
 618 0002 0720     		movs	r0, #7
 619 0004 FFF7FEFF 		bl	NRF24_read_register
 620              	.LVL51:
 163:Drivers/NRF24L01/Src/MY_NRF24.c ****     return statReg;
 621              		.loc 1 163 5 is_stmt 1 view .LVU107
 164:Drivers/NRF24L01/Src/MY_NRF24.c **** }
 622              		.loc 1 164 1 is_stmt 0 view .LVU108
 623 0008 08BD     		pop	{r3, pc}
 624              		.cfi_endproc
 625              	.LFE86:
 627              		.section	.text.NRF24_startListening,"ax",%progbits
 628              		.align	1
 629              		.global	NRF24_startListening
 630              		.syntax unified
 631              		.thumb
 632              		.thumb_func
 634              	NRF24_startListening:
 635              	.LFB88:
 165:Drivers/NRF24L01/Src/MY_NRF24.c **** 
 166:Drivers/NRF24L01/Src/MY_NRF24.c **** // 12. Begin function
 167:Drivers/NRF24L01/Src/MY_NRF24.c **** void NRF24_begin(GPIO_TypeDef *nrf24PORT, uint16_t nrfCSN_Pin,
 168:Drivers/NRF24L01/Src/MY_NRF24.c ****                  uint16_t nrfCE_Pin, SPI_HandleTypeDef nrfSPI) {
 169:Drivers/NRF24L01/Src/MY_NRF24.c ****     // Copy SPI handle variable
 170:Drivers/NRF24L01/Src/MY_NRF24.c ****     memcpy(&nrf24_hspi, &nrfSPI, sizeof(nrfSPI));
 171:Drivers/NRF24L01/Src/MY_NRF24.c ****     // Copy Pins and Port variables
 172:Drivers/NRF24L01/Src/MY_NRF24.c ****     nrf24_PORT = nrf24PORT;
 173:Drivers/NRF24L01/Src/MY_NRF24.c ****     nrf24_CSN_PIN = nrfCSN_Pin;
 174:Drivers/NRF24L01/Src/MY_NRF24.c ****     nrf24_CE_PIN = nrfCE_Pin;
 175:Drivers/NRF24L01/Src/MY_NRF24.c **** 
 176:Drivers/NRF24L01/Src/MY_NRF24.c ****     // Put pins to idle state
 177:Drivers/NRF24L01/Src/MY_NRF24.c ****     NRF24_csn(1);
 178:Drivers/NRF24L01/Src/MY_NRF24.c ****     NRF24_ce(0);
 179:Drivers/NRF24L01/Src/MY_NRF24.c ****     // 5 ms initial delay
ARM GAS  C:\Users\sangt\AppData\Local\Temp\cc5NRPvh.s 			page 15


 180:Drivers/NRF24L01/Src/MY_NRF24.c ****     HAL_Delay(5);
 181:Drivers/NRF24L01/Src/MY_NRF24.c **** 
 182:Drivers/NRF24L01/Src/MY_NRF24.c ****     //**** Soft Reset Registers default values ****//
 183:Drivers/NRF24L01/Src/MY_NRF24.c ****     NRF24_write_register(0x00, 0x08);
 184:Drivers/NRF24L01/Src/MY_NRF24.c ****     NRF24_write_register(0x01, 0x3f);
 185:Drivers/NRF24L01/Src/MY_NRF24.c ****     NRF24_write_register(0x02, 0x03);
 186:Drivers/NRF24L01/Src/MY_NRF24.c ****     NRF24_write_register(0x03, 0x03);
 187:Drivers/NRF24L01/Src/MY_NRF24.c ****     NRF24_write_register(0x04, 0x03);
 188:Drivers/NRF24L01/Src/MY_NRF24.c ****     NRF24_write_register(0x05, 0x02);
 189:Drivers/NRF24L01/Src/MY_NRF24.c ****     NRF24_write_register(0x06, 0x0f);
 190:Drivers/NRF24L01/Src/MY_NRF24.c ****     NRF24_write_register(0x07, 0x0e);
 191:Drivers/NRF24L01/Src/MY_NRF24.c ****     NRF24_write_register(0x08, 0x00);
 192:Drivers/NRF24L01/Src/MY_NRF24.c ****     NRF24_write_register(0x09, 0x00);
 193:Drivers/NRF24L01/Src/MY_NRF24.c ****     uint8_t pipeAddrVar[6];
 194:Drivers/NRF24L01/Src/MY_NRF24.c ****     pipeAddrVar[4] = 0xE7;
 195:Drivers/NRF24L01/Src/MY_NRF24.c ****     pipeAddrVar[3] = 0xE7;
 196:Drivers/NRF24L01/Src/MY_NRF24.c ****     pipeAddrVar[2] = 0xE7;
 197:Drivers/NRF24L01/Src/MY_NRF24.c ****     pipeAddrVar[1] = 0xE7;
 198:Drivers/NRF24L01/Src/MY_NRF24.c ****     pipeAddrVar[0] = 0xE7;
 199:Drivers/NRF24L01/Src/MY_NRF24.c ****     NRF24_write_registerN(0x0A, pipeAddrVar, 5);
 200:Drivers/NRF24L01/Src/MY_NRF24.c ****     pipeAddrVar[4] = 0xC2;
 201:Drivers/NRF24L01/Src/MY_NRF24.c ****     pipeAddrVar[3] = 0xC2;
 202:Drivers/NRF24L01/Src/MY_NRF24.c ****     pipeAddrVar[2] = 0xC2;
 203:Drivers/NRF24L01/Src/MY_NRF24.c ****     pipeAddrVar[1] = 0xC2;
 204:Drivers/NRF24L01/Src/MY_NRF24.c ****     pipeAddrVar[0] = 0xC2;
 205:Drivers/NRF24L01/Src/MY_NRF24.c ****     NRF24_write_registerN(0x0B, pipeAddrVar, 5);
 206:Drivers/NRF24L01/Src/MY_NRF24.c ****     NRF24_write_register(0x0C, 0xC3);
 207:Drivers/NRF24L01/Src/MY_NRF24.c ****     NRF24_write_register(0x0D, 0xC4);
 208:Drivers/NRF24L01/Src/MY_NRF24.c ****     NRF24_write_register(0x0E, 0xC5);
 209:Drivers/NRF24L01/Src/MY_NRF24.c ****     NRF24_write_register(0x0F, 0xC6);
 210:Drivers/NRF24L01/Src/MY_NRF24.c ****     pipeAddrVar[4] = 0xE7;
 211:Drivers/NRF24L01/Src/MY_NRF24.c ****     pipeAddrVar[3] = 0xE7;
 212:Drivers/NRF24L01/Src/MY_NRF24.c ****     pipeAddrVar[2] = 0xE7;
 213:Drivers/NRF24L01/Src/MY_NRF24.c ****     pipeAddrVar[1] = 0xE7;
 214:Drivers/NRF24L01/Src/MY_NRF24.c ****     pipeAddrVar[0] = 0xE7;
 215:Drivers/NRF24L01/Src/MY_NRF24.c ****     NRF24_write_registerN(0x10, pipeAddrVar, 5);
 216:Drivers/NRF24L01/Src/MY_NRF24.c ****     NRF24_write_register(0x11, 0);
 217:Drivers/NRF24L01/Src/MY_NRF24.c ****     NRF24_write_register(0x12, 0);
 218:Drivers/NRF24L01/Src/MY_NRF24.c ****     NRF24_write_register(0x13, 0);
 219:Drivers/NRF24L01/Src/MY_NRF24.c ****     NRF24_write_register(0x14, 0);
 220:Drivers/NRF24L01/Src/MY_NRF24.c ****     NRF24_write_register(0x15, 0);
 221:Drivers/NRF24L01/Src/MY_NRF24.c ****     NRF24_write_register(0x16, 0);
 222:Drivers/NRF24L01/Src/MY_NRF24.c **** 
 223:Drivers/NRF24L01/Src/MY_NRF24.c ****     NRF24_ACTIVATE_cmd();
 224:Drivers/NRF24L01/Src/MY_NRF24.c ****     NRF24_write_register(0x1c, 0);
 225:Drivers/NRF24L01/Src/MY_NRF24.c ****     NRF24_write_register(0x1d, 0);
 226:Drivers/NRF24L01/Src/MY_NRF24.c ****     printRadioSettings();
 227:Drivers/NRF24L01/Src/MY_NRF24.c ****     // Initialise retries 15 and delay 1250 usec
 228:Drivers/NRF24L01/Src/MY_NRF24.c ****     NRF24_setRetries(15, 15);
 229:Drivers/NRF24L01/Src/MY_NRF24.c ****     // Initialise PA level to max (0dB)
 230:Drivers/NRF24L01/Src/MY_NRF24.c ****     NRF24_setPALevel(RF24_PA_0dB);
 231:Drivers/NRF24L01/Src/MY_NRF24.c ****     // Initialise data rate to 1Mbps
 232:Drivers/NRF24L01/Src/MY_NRF24.c ****     NRF24_setDataRate(RF24_2MBPS);
 233:Drivers/NRF24L01/Src/MY_NRF24.c ****     // Initalise CRC length to 16-bit (2 bytes)
 234:Drivers/NRF24L01/Src/MY_NRF24.c ****     NRF24_setCRCLength(RF24_CRC_16);
 235:Drivers/NRF24L01/Src/MY_NRF24.c ****     // Disable dynamic payload
 236:Drivers/NRF24L01/Src/MY_NRF24.c ****     NRF24_disableDynamicPayloads();
ARM GAS  C:\Users\sangt\AppData\Local\Temp\cc5NRPvh.s 			page 16


 237:Drivers/NRF24L01/Src/MY_NRF24.c ****     // Set payload size
 238:Drivers/NRF24L01/Src/MY_NRF24.c ****     NRF24_setPayloadSize(32);
 239:Drivers/NRF24L01/Src/MY_NRF24.c **** 
 240:Drivers/NRF24L01/Src/MY_NRF24.c ****     // Reset status register
 241:Drivers/NRF24L01/Src/MY_NRF24.c ****     NRF24_resetStatus();
 242:Drivers/NRF24L01/Src/MY_NRF24.c ****     // Initialise channel to 76
 243:Drivers/NRF24L01/Src/MY_NRF24.c ****     NRF24_setChannel(76);
 244:Drivers/NRF24L01/Src/MY_NRF24.c ****     // Flush buffers
 245:Drivers/NRF24L01/Src/MY_NRF24.c ****     NRF24_flush_tx();
 246:Drivers/NRF24L01/Src/MY_NRF24.c ****     NRF24_flush_rx();
 247:Drivers/NRF24L01/Src/MY_NRF24.c **** 
 248:Drivers/NRF24L01/Src/MY_NRF24.c ****     NRF24_powerDown();
 249:Drivers/NRF24L01/Src/MY_NRF24.c **** }
 250:Drivers/NRF24L01/Src/MY_NRF24.c **** // 13. Listen on open pipes for reading (Must call NRF24_openReadingPipe()
 251:Drivers/NRF24L01/Src/MY_NRF24.c **** // first)
 252:Drivers/NRF24L01/Src/MY_NRF24.c **** void NRF24_startListening(void) {
 636              		.loc 1 252 33 is_stmt 1 view -0
 637              		.cfi_startproc
 638              		@ args = 0, pretend = 0, frame = 0
 639              		@ frame_needed = 0, uses_anonymous_args = 0
 640 0000 08B5     		push	{r3, lr}
 641              	.LCFI20:
 642              		.cfi_def_cfa_offset 8
 643              		.cfi_offset 3, -8
 644              		.cfi_offset 14, -4
 253:Drivers/NRF24L01/Src/MY_NRF24.c ****     // Power up and set to RX mode
 254:Drivers/NRF24L01/Src/MY_NRF24.c ****     NRF24_write_register(
 645              		.loc 1 254 5 view .LVU110
 255:Drivers/NRF24L01/Src/MY_NRF24.c ****         REG_CONFIG, NRF24_read_register(REG_CONFIG) | (1UL << 1) | (1UL << 0));
 646              		.loc 1 255 21 is_stmt 0 view .LVU111
 647 0002 0020     		movs	r0, #0
 648 0004 FFF7FEFF 		bl	NRF24_read_register
 649              	.LVL52:
 254:Drivers/NRF24L01/Src/MY_NRF24.c ****         REG_CONFIG, NRF24_read_register(REG_CONFIG) | (1UL << 1) | (1UL << 0));
 650              		.loc 1 254 5 view .LVU112
 651 0008 40F00301 		orr	r1, r0, #3
 652 000c C9B2     		uxtb	r1, r1
 653 000e 0020     		movs	r0, #0
 654 0010 FFF7FEFF 		bl	NRF24_write_register
 655              	.LVL53:
 256:Drivers/NRF24L01/Src/MY_NRF24.c ****     // Restore pipe 0 address if exists
 257:Drivers/NRF24L01/Src/MY_NRF24.c ****     if (pipe0_reading_address)
 656              		.loc 1 257 5 is_stmt 1 view .LVU113
 657              		.loc 1 257 9 is_stmt 0 view .LVU114
 658 0014 094B     		ldr	r3, .L47
 659 0016 1A68     		ldr	r2, [r3]
 660 0018 5B68     		ldr	r3, [r3, #4]
 661              		.loc 1 257 8 view .LVU115
 662 001a 1343     		orrs	r3, r2, r3
 663 001c 07D1     		bne	.L46
 664              	.L44:
 258:Drivers/NRF24L01/Src/MY_NRF24.c ****         NRF24_write_registerN(REG_RX_ADDR_P0,
 259:Drivers/NRF24L01/Src/MY_NRF24.c ****                               (uint8_t *)(&pipe0_reading_address), 5);
 260:Drivers/NRF24L01/Src/MY_NRF24.c **** 
 261:Drivers/NRF24L01/Src/MY_NRF24.c ****     // Flush buffers
 262:Drivers/NRF24L01/Src/MY_NRF24.c ****     NRF24_flush_tx();
 665              		.loc 1 262 5 is_stmt 1 view .LVU116
ARM GAS  C:\Users\sangt\AppData\Local\Temp\cc5NRPvh.s 			page 17


 666 001e FFF7FEFF 		bl	NRF24_flush_tx
 667              	.LVL54:
 263:Drivers/NRF24L01/Src/MY_NRF24.c ****     NRF24_flush_rx();
 668              		.loc 1 263 5 view .LVU117
 669 0022 FFF7FEFF 		bl	NRF24_flush_rx
 670              	.LVL55:
 264:Drivers/NRF24L01/Src/MY_NRF24.c ****     // Set CE HIGH to start listenning
 265:Drivers/NRF24L01/Src/MY_NRF24.c ****     NRF24_ce(1);
 671              		.loc 1 265 5 view .LVU118
 672 0026 0120     		movs	r0, #1
 673 0028 FFF7FEFF 		bl	NRF24_ce
 674              	.LVL56:
 266:Drivers/NRF24L01/Src/MY_NRF24.c ****     // Wait for 130 uSec for the radio to come on
 267:Drivers/NRF24L01/Src/MY_NRF24.c ****     NRF24_DelayMicroSeconds(150);
 675              		.loc 1 267 5 view .LVU119
 268:Drivers/NRF24L01/Src/MY_NRF24.c **** }
 676              		.loc 1 268 1 is_stmt 0 view .LVU120
 677 002c 08BD     		pop	{r3, pc}
 678              	.L46:
 258:Drivers/NRF24L01/Src/MY_NRF24.c ****                               (uint8_t *)(&pipe0_reading_address), 5);
 679              		.loc 1 258 9 is_stmt 1 view .LVU121
 680 002e 0522     		movs	r2, #5
 681 0030 0249     		ldr	r1, .L47
 682 0032 0A20     		movs	r0, #10
 683 0034 FFF7FEFF 		bl	NRF24_write_registerN
 684              	.LVL57:
 685 0038 F1E7     		b	.L44
 686              	.L48:
 687 003a 00BF     		.align	2
 688              	.L47:
 689 003c 00000000 		.word	.LANCHOR4
 690              		.cfi_endproc
 691              	.LFE88:
 693              		.section	.text.NRF24_stopListening,"ax",%progbits
 694              		.align	1
 695              		.global	NRF24_stopListening
 696              		.syntax unified
 697              		.thumb
 698              		.thumb_func
 700              	NRF24_stopListening:
 701              	.LFB89:
 269:Drivers/NRF24L01/Src/MY_NRF24.c **** // 14. Stop listening (essential before any write operation)
 270:Drivers/NRF24L01/Src/MY_NRF24.c **** void NRF24_stopListening(void) {
 702              		.loc 1 270 32 view -0
 703              		.cfi_startproc
 704              		@ args = 0, pretend = 0, frame = 0
 705              		@ frame_needed = 0, uses_anonymous_args = 0
 706 0000 08B5     		push	{r3, lr}
 707              	.LCFI21:
 708              		.cfi_def_cfa_offset 8
 709              		.cfi_offset 3, -8
 710              		.cfi_offset 14, -4
 271:Drivers/NRF24L01/Src/MY_NRF24.c ****     NRF24_ce(0);
 711              		.loc 1 271 5 view .LVU123
 712 0002 0020     		movs	r0, #0
 713 0004 FFF7FEFF 		bl	NRF24_ce
 714              	.LVL58:
ARM GAS  C:\Users\sangt\AppData\Local\Temp\cc5NRPvh.s 			page 18


 272:Drivers/NRF24L01/Src/MY_NRF24.c ****     NRF24_flush_tx();
 715              		.loc 1 272 5 view .LVU124
 716 0008 FFF7FEFF 		bl	NRF24_flush_tx
 717              	.LVL59:
 273:Drivers/NRF24L01/Src/MY_NRF24.c ****     NRF24_flush_rx();
 718              		.loc 1 273 5 view .LVU125
 719 000c FFF7FEFF 		bl	NRF24_flush_rx
 720              	.LVL60:
 274:Drivers/NRF24L01/Src/MY_NRF24.c **** }
 721              		.loc 1 274 1 is_stmt 0 view .LVU126
 722 0010 08BD     		pop	{r3, pc}
 723              		.cfi_endproc
 724              	.LFE89:
 726              		.section	.text.NRF24_openWritingPipe,"ax",%progbits
 727              		.align	1
 728              		.global	NRF24_openWritingPipe
 729              		.syntax unified
 730              		.thumb
 731              		.thumb_func
 733              	NRF24_openWritingPipe:
 734              	.LVL61:
 735              	.LFB93:
 275:Drivers/NRF24L01/Src/MY_NRF24.c **** // 15. Write(Transmit data), returns true if successfully sent
 276:Drivers/NRF24L01/Src/MY_NRF24.c **** bool NRF24_write(const void *buf, uint8_t len) {
 277:Drivers/NRF24L01/Src/MY_NRF24.c ****     bool retStatus;
 278:Drivers/NRF24L01/Src/MY_NRF24.c ****     // Start writing
 279:Drivers/NRF24L01/Src/MY_NRF24.c ****     NRF24_resetStatus();
 280:Drivers/NRF24L01/Src/MY_NRF24.c ****     NRF24_startWrite(buf, len);
 281:Drivers/NRF24L01/Src/MY_NRF24.c ****     // Data monitor
 282:Drivers/NRF24L01/Src/MY_NRF24.c ****     uint8_t observe_tx;
 283:Drivers/NRF24L01/Src/MY_NRF24.c ****     uint8_t status;
 284:Drivers/NRF24L01/Src/MY_NRF24.c ****     uint32_t sent_at = HAL_GetTick();
 285:Drivers/NRF24L01/Src/MY_NRF24.c ****     const uint32_t timeout = 10;  // ms to wait for timeout
 286:Drivers/NRF24L01/Src/MY_NRF24.c ****     do {
 287:Drivers/NRF24L01/Src/MY_NRF24.c ****         NRF24_read_registerN(REG_OBSERVE_TX, &observe_tx, 1);
 288:Drivers/NRF24L01/Src/MY_NRF24.c ****         // Get status register
 289:Drivers/NRF24L01/Src/MY_NRF24.c ****         status = NRF24_get_status();
 290:Drivers/NRF24L01/Src/MY_NRF24.c ****     } while (!(status & (_BV(BIT_TX_DS) | _BV(BIT_MAX_RT))) &&
 291:Drivers/NRF24L01/Src/MY_NRF24.c ****              (HAL_GetTick() - sent_at < timeout));
 292:Drivers/NRF24L01/Src/MY_NRF24.c **** 
 293:Drivers/NRF24L01/Src/MY_NRF24.c ****     //	printConfigReg();
 294:Drivers/NRF24L01/Src/MY_NRF24.c ****     //	printStatusReg();
 295:Drivers/NRF24L01/Src/MY_NRF24.c **** 
 296:Drivers/NRF24L01/Src/MY_NRF24.c ****     bool tx_ok, tx_fail;
 297:Drivers/NRF24L01/Src/MY_NRF24.c ****     NRF24_whatHappened(&tx_ok, &tx_fail, &ack_payload_available);
 298:Drivers/NRF24L01/Src/MY_NRF24.c ****     retStatus = tx_ok;
 299:Drivers/NRF24L01/Src/MY_NRF24.c ****     if (ack_payload_available) {
 300:Drivers/NRF24L01/Src/MY_NRF24.c ****         ack_payload_length = NRF24_getDynamicPayloadSize();
 301:Drivers/NRF24L01/Src/MY_NRF24.c ****     }
 302:Drivers/NRF24L01/Src/MY_NRF24.c **** 
 303:Drivers/NRF24L01/Src/MY_NRF24.c ****     // Power down
 304:Drivers/NRF24L01/Src/MY_NRF24.c ****     NRF24_available();
 305:Drivers/NRF24L01/Src/MY_NRF24.c ****     NRF24_flush_tx();
 306:Drivers/NRF24L01/Src/MY_NRF24.c ****     return retStatus;
 307:Drivers/NRF24L01/Src/MY_NRF24.c **** }
 308:Drivers/NRF24L01/Src/MY_NRF24.c **** // 16. Check for available data to read
 309:Drivers/NRF24L01/Src/MY_NRF24.c **** bool NRF24_available(void) { return NRF24_availablePipe(NULL); }
ARM GAS  C:\Users\sangt\AppData\Local\Temp\cc5NRPvh.s 			page 19


 310:Drivers/NRF24L01/Src/MY_NRF24.c **** // 17. Read received data
 311:Drivers/NRF24L01/Src/MY_NRF24.c **** bool NRF24_read(void *buf, uint8_t len) {
 312:Drivers/NRF24L01/Src/MY_NRF24.c ****     NRF24_read_payload(buf, len);
 313:Drivers/NRF24L01/Src/MY_NRF24.c ****     uint8_t rxStatus = NRF24_read_register(REG_FIFO_STATUS) & _BV(BIT_RX_EMPTY);
 314:Drivers/NRF24L01/Src/MY_NRF24.c ****     NRF24_flush_rx();
 315:Drivers/NRF24L01/Src/MY_NRF24.c ****     NRF24_getDynamicPayloadSize();
 316:Drivers/NRF24L01/Src/MY_NRF24.c ****     return rxStatus;
 317:Drivers/NRF24L01/Src/MY_NRF24.c **** }
 318:Drivers/NRF24L01/Src/MY_NRF24.c **** // 18. Open Tx pipe for writing (Cannot perform this while Listenning, has to
 319:Drivers/NRF24L01/Src/MY_NRF24.c **** // call NRF24_stopListening)
 320:Drivers/NRF24L01/Src/MY_NRF24.c **** void NRF24_openWritingPipe(uint64_t address) {
 736              		.loc 1 320 46 is_stmt 1 view -0
 737              		.cfi_startproc
 738              		@ args = 0, pretend = 0, frame = 8
 739              		@ frame_needed = 0, uses_anonymous_args = 0
 740              		.loc 1 320 46 is_stmt 0 view .LVU128
 741 0000 00B5     		push	{lr}
 742              	.LCFI22:
 743              		.cfi_def_cfa_offset 4
 744              		.cfi_offset 14, -4
 745 0002 83B0     		sub	sp, sp, #12
 746              	.LCFI23:
 747              		.cfi_def_cfa_offset 16
 748 0004 CDE90001 		strd	r0, [sp]
 321:Drivers/NRF24L01/Src/MY_NRF24.c ****     NRF24_write_registerN(REG_RX_ADDR_P0, (uint8_t *)(&address), 5);
 749              		.loc 1 321 5 is_stmt 1 view .LVU129
 750 0008 0522     		movs	r2, #5
 751 000a 6946     		mov	r1, sp
 752 000c 0A20     		movs	r0, #10
 753              	.LVL62:
 754              		.loc 1 321 5 is_stmt 0 view .LVU130
 755 000e FFF7FEFF 		bl	NRF24_write_registerN
 756              	.LVL63:
 322:Drivers/NRF24L01/Src/MY_NRF24.c ****     NRF24_write_registerN(REG_TX_ADDR, (uint8_t *)(&address), 5);
 757              		.loc 1 322 5 is_stmt 1 view .LVU131
 758 0012 0522     		movs	r2, #5
 759 0014 6946     		mov	r1, sp
 760 0016 1020     		movs	r0, #16
 761 0018 FFF7FEFF 		bl	NRF24_write_registerN
 762              	.LVL64:
 323:Drivers/NRF24L01/Src/MY_NRF24.c **** 
 324:Drivers/NRF24L01/Src/MY_NRF24.c ****     const uint8_t max_payload_size = 32;
 763              		.loc 1 324 5 view .LVU132
 325:Drivers/NRF24L01/Src/MY_NRF24.c ****     NRF24_write_register(REG_RX_PW_P0, MIN(payload_size, max_payload_size));
 764              		.loc 1 325 5 view .LVU133
 765 001c 054B     		ldr	r3, .L53
 766 001e 1978     		ldrb	r1, [r3]	@ zero_extendqisi2
 767 0020 2029     		cmp	r1, #32
 768 0022 28BF     		it	cs
 769 0024 2021     		movcs	r1, #32
 770 0026 1120     		movs	r0, #17
 771 0028 FFF7FEFF 		bl	NRF24_write_register
 772              	.LVL65:
 326:Drivers/NRF24L01/Src/MY_NRF24.c **** }
 773              		.loc 1 326 1 is_stmt 0 view .LVU134
 774 002c 03B0     		add	sp, sp, #12
 775              	.LCFI24:
ARM GAS  C:\Users\sangt\AppData\Local\Temp\cc5NRPvh.s 			page 20


 776              		.cfi_def_cfa_offset 4
 777              		@ sp needed
 778 002e 5DF804FB 		ldr	pc, [sp], #4
 779              	.L54:
 780 0032 00BF     		.align	2
 781              	.L53:
 782 0034 00000000 		.word	.LANCHOR5
 783              		.cfi_endproc
 784              	.LFE93:
 786              		.section	.text.NRF24_openReadingPipe,"ax",%progbits
 787              		.align	1
 788              		.global	NRF24_openReadingPipe
 789              		.syntax unified
 790              		.thumb
 791              		.thumb_func
 793              	NRF24_openReadingPipe:
 794              	.LVL66:
 795              	.LFB94:
 327:Drivers/NRF24L01/Src/MY_NRF24.c **** // 19. Open reading pipe
 328:Drivers/NRF24L01/Src/MY_NRF24.c **** void NRF24_openReadingPipe(uint8_t number, uint64_t address) {
 796              		.loc 1 328 62 is_stmt 1 view -0
 797              		.cfi_startproc
 798              		@ args = 0, pretend = 0, frame = 8
 799              		@ frame_needed = 0, uses_anonymous_args = 0
 800              		.loc 1 328 62 is_stmt 0 view .LVU136
 801 0000 10B5     		push	{r4, lr}
 802              	.LCFI25:
 803              		.cfi_def_cfa_offset 8
 804              		.cfi_offset 4, -8
 805              		.cfi_offset 14, -4
 806 0002 82B0     		sub	sp, sp, #8
 807              	.LCFI26:
 808              		.cfi_def_cfa_offset 16
 809 0004 CDE90023 		strd	r2, [sp]
 329:Drivers/NRF24L01/Src/MY_NRF24.c ****     if (number == 0) pipe0_reading_address = address;
 810              		.loc 1 329 5 is_stmt 1 view .LVU137
 811              		.loc 1 329 8 is_stmt 0 view .LVU138
 812 0008 0446     		mov	r4, r0
 813 000a 20B9     		cbnz	r0, .L56
 814              		.loc 1 329 22 is_stmt 1 discriminator 1 view .LVU139
 815              		.loc 1 329 44 is_stmt 0 discriminator 1 view .LVU140
 816 000c 144B     		ldr	r3, .L62
 817 000e DDE90001 		ldrd	r0, [sp]
 818              	.LVL67:
 819              		.loc 1 329 44 discriminator 1 view .LVU141
 820 0012 C3E90001 		strd	r0, [r3]
 821              	.L56:
 330:Drivers/NRF24L01/Src/MY_NRF24.c **** 
 331:Drivers/NRF24L01/Src/MY_NRF24.c ****     if (number <= 6) {
 822              		.loc 1 331 5 is_stmt 1 view .LVU142
 823              		.loc 1 331 8 is_stmt 0 view .LVU143
 824 0016 062C     		cmp	r4, #6
 825 0018 19D8     		bhi	.L55
 332:Drivers/NRF24L01/Src/MY_NRF24.c ****         if (number < 2) {
 826              		.loc 1 332 9 is_stmt 1 view .LVU144
 827              		.loc 1 332 12 is_stmt 0 view .LVU145
 828 001a 012C     		cmp	r4, #1
ARM GAS  C:\Users\sangt\AppData\Local\Temp\cc5NRPvh.s 			page 21


 829 001c 19D9     		bls	.L61
 333:Drivers/NRF24L01/Src/MY_NRF24.c ****             // Address width is 5 bytes
 334:Drivers/NRF24L01/Src/MY_NRF24.c ****             NRF24_write_registerN(NRF24_ADDR_REGS[number],
 335:Drivers/NRF24L01/Src/MY_NRF24.c ****                                   (uint8_t *)(&address), 5);
 336:Drivers/NRF24L01/Src/MY_NRF24.c ****         } else {
 337:Drivers/NRF24L01/Src/MY_NRF24.c ****             NRF24_write_registerN(NRF24_ADDR_REGS[number],
 830              		.loc 1 337 13 is_stmt 1 view .LVU146
 831 001e 0122     		movs	r2, #1
 832              	.LVL68:
 833              		.loc 1 337 13 is_stmt 0 view .LVU147
 834 0020 6946     		mov	r1, sp
 835 0022 104B     		ldr	r3, .L62+4
 836 0024 185D     		ldrb	r0, [r3, r4]	@ zero_extendqisi2
 837 0026 FFF7FEFF 		bl	NRF24_write_registerN
 838              	.LVL69:
 839              	.L59:
 338:Drivers/NRF24L01/Src/MY_NRF24.c ****                                   (uint8_t *)(&address), 1);
 339:Drivers/NRF24L01/Src/MY_NRF24.c ****         }
 340:Drivers/NRF24L01/Src/MY_NRF24.c ****         // Write payload size
 341:Drivers/NRF24L01/Src/MY_NRF24.c ****         NRF24_write_register(RF24_RX_PW_PIPE[number], payload_size);
 840              		.loc 1 341 9 is_stmt 1 view .LVU148
 841 002a 0F4B     		ldr	r3, .L62+8
 842 002c 1978     		ldrb	r1, [r3]	@ zero_extendqisi2
 843 002e 0F4B     		ldr	r3, .L62+12
 844 0030 185D     		ldrb	r0, [r3, r4]	@ zero_extendqisi2
 845 0032 FFF7FEFF 		bl	NRF24_write_register
 846              	.LVL70:
 342:Drivers/NRF24L01/Src/MY_NRF24.c ****         // Enable pipe
 343:Drivers/NRF24L01/Src/MY_NRF24.c ****         NRF24_write_register(REG_EN_RXADDR,
 847              		.loc 1 343 9 view .LVU149
 344:Drivers/NRF24L01/Src/MY_NRF24.c ****                              NRF24_read_register(REG_EN_RXADDR) | _BV(number));
 848              		.loc 1 344 30 is_stmt 0 view .LVU150
 849 0036 0220     		movs	r0, #2
 850 0038 FFF7FEFF 		bl	NRF24_read_register
 851              	.LVL71:
 852 003c 41B2     		sxtb	r1, r0
 853              		.loc 1 344 67 view .LVU151
 854 003e 0120     		movs	r0, #1
 855 0040 00FA04F4 		lsl	r4, r0, r4
 856              		.loc 1 344 65 view .LVU152
 857 0044 2143     		orrs	r1, r1, r4
 343:Drivers/NRF24L01/Src/MY_NRF24.c ****                              NRF24_read_register(REG_EN_RXADDR) | _BV(number));
 858              		.loc 1 343 9 view .LVU153
 859 0046 C9B2     		uxtb	r1, r1
 860 0048 0220     		movs	r0, #2
 861 004a FFF7FEFF 		bl	NRF24_write_register
 862              	.LVL72:
 863              	.L55:
 345:Drivers/NRF24L01/Src/MY_NRF24.c ****     }
 346:Drivers/NRF24L01/Src/MY_NRF24.c **** }
 864              		.loc 1 346 1 view .LVU154
 865 004e 02B0     		add	sp, sp, #8
 866              	.LCFI27:
 867              		.cfi_remember_state
 868              		.cfi_def_cfa_offset 8
 869              		@ sp needed
 870 0050 10BD     		pop	{r4, pc}
ARM GAS  C:\Users\sangt\AppData\Local\Temp\cc5NRPvh.s 			page 22


 871              	.LVL73:
 872              	.L61:
 873              	.LCFI28:
 874              		.cfi_restore_state
 334:Drivers/NRF24L01/Src/MY_NRF24.c ****                                   (uint8_t *)(&address), 5);
 875              		.loc 1 334 13 is_stmt 1 view .LVU155
 876 0052 0522     		movs	r2, #5
 877              	.LVL74:
 334:Drivers/NRF24L01/Src/MY_NRF24.c ****                                   (uint8_t *)(&address), 5);
 878              		.loc 1 334 13 is_stmt 0 view .LVU156
 879 0054 6946     		mov	r1, sp
 880 0056 034B     		ldr	r3, .L62+4
 881 0058 185D     		ldrb	r0, [r3, r4]	@ zero_extendqisi2
 882 005a FFF7FEFF 		bl	NRF24_write_registerN
 883              	.LVL75:
 334:Drivers/NRF24L01/Src/MY_NRF24.c ****                                   (uint8_t *)(&address), 5);
 884              		.loc 1 334 13 view .LVU157
 885 005e E4E7     		b	.L59
 886              	.L63:
 887              		.align	2
 888              	.L62:
 889 0060 00000000 		.word	.LANCHOR4
 890 0064 00000000 		.word	.LANCHOR6
 891 0068 00000000 		.word	.LANCHOR5
 892 006c 00000000 		.word	.LANCHOR7
 893              		.cfi_endproc
 894              	.LFE94:
 896              		.section	.text.NRF24_setRetries,"ax",%progbits
 897              		.align	1
 898              		.global	NRF24_setRetries
 899              		.syntax unified
 900              		.thumb
 901              		.thumb_func
 903              	NRF24_setRetries:
 904              	.LVL76:
 905              	.LFB95:
 347:Drivers/NRF24L01/Src/MY_NRF24.c **** // 20 set transmit retries (rf24_Retries_e) and delay
 348:Drivers/NRF24L01/Src/MY_NRF24.c **** void NRF24_setRetries(uint8_t delay, uint8_t count) {
 906              		.loc 1 348 53 is_stmt 1 view -0
 907              		.cfi_startproc
 908              		@ args = 0, pretend = 0, frame = 0
 909              		@ frame_needed = 0, uses_anonymous_args = 0
 910              		.loc 1 348 53 is_stmt 0 view .LVU159
 911 0000 08B5     		push	{r3, lr}
 912              	.LCFI29:
 913              		.cfi_def_cfa_offset 8
 914              		.cfi_offset 3, -8
 915              		.cfi_offset 14, -4
 349:Drivers/NRF24L01/Src/MY_NRF24.c ****     NRF24_write_register(REG_SETUP_RETR,
 916              		.loc 1 349 5 is_stmt 1 view .LVU160
 350:Drivers/NRF24L01/Src/MY_NRF24.c ****                          (delay & 0xf) << BIT_ARD | (count & 0xf) << BIT_ARC);
 917              		.loc 1 350 67 is_stmt 0 view .LVU161
 918 0002 01F00F01 		and	r1, r1, #15
 919              	.LVL77:
 920              		.loc 1 350 51 view .LVU162
 921 0006 41EA0011 		orr	r1, r1, r0, lsl #4
 349:Drivers/NRF24L01/Src/MY_NRF24.c ****     NRF24_write_register(REG_SETUP_RETR,
ARM GAS  C:\Users\sangt\AppData\Local\Temp\cc5NRPvh.s 			page 23


 922              		.loc 1 349 5 view .LVU163
 923 000a C9B2     		uxtb	r1, r1
 924 000c 0420     		movs	r0, #4
 925              	.LVL78:
 349:Drivers/NRF24L01/Src/MY_NRF24.c ****     NRF24_write_register(REG_SETUP_RETR,
 926              		.loc 1 349 5 view .LVU164
 927 000e FFF7FEFF 		bl	NRF24_write_register
 928              	.LVL79:
 351:Drivers/NRF24L01/Src/MY_NRF24.c **** }
 929              		.loc 1 351 1 view .LVU165
 930 0012 08BD     		pop	{r3, pc}
 931              		.cfi_endproc
 932              	.LFE95:
 934              		.section	.text.NRF24_setChannel,"ax",%progbits
 935              		.align	1
 936              		.global	NRF24_setChannel
 937              		.syntax unified
 938              		.thumb
 939              		.thumb_func
 941              	NRF24_setChannel:
 942              	.LVL80:
 943              	.LFB96:
 352:Drivers/NRF24L01/Src/MY_NRF24.c **** 
 353:Drivers/NRF24L01/Src/MY_NRF24.c **** // 21. Set RF channel frequency
 354:Drivers/NRF24L01/Src/MY_NRF24.c **** void NRF24_setChannel(uint8_t channel) {
 944              		.loc 1 354 40 is_stmt 1 view -0
 945              		.cfi_startproc
 946              		@ args = 0, pretend = 0, frame = 0
 947              		@ frame_needed = 0, uses_anonymous_args = 0
 948              		.loc 1 354 40 is_stmt 0 view .LVU167
 949 0000 08B5     		push	{r3, lr}
 950              	.LCFI30:
 951              		.cfi_def_cfa_offset 8
 952              		.cfi_offset 3, -8
 953              		.cfi_offset 14, -4
 355:Drivers/NRF24L01/Src/MY_NRF24.c ****     const uint8_t max_channel = 127;
 954              		.loc 1 355 5 is_stmt 1 view .LVU168
 955              	.LVL81:
 356:Drivers/NRF24L01/Src/MY_NRF24.c ****     NRF24_write_register(REG_RF_CH, MIN(channel, max_channel));
 956              		.loc 1 356 5 view .LVU169
 957 0002 0146     		mov	r1, r0
 958 0004 7F28     		cmp	r0, #127
 959 0006 28BF     		it	cs
 960 0008 7F21     		movcs	r1, #127
 961 000a 0520     		movs	r0, #5
 962              	.LVL82:
 963              		.loc 1 356 5 is_stmt 0 view .LVU170
 964 000c FFF7FEFF 		bl	NRF24_write_register
 965              	.LVL83:
 357:Drivers/NRF24L01/Src/MY_NRF24.c **** }
 966              		.loc 1 357 1 view .LVU171
 967 0010 08BD     		pop	{r3, pc}
 968              		.cfi_endproc
 969              	.LFE96:
 971              		.section	.text.NRF24_setPayloadSize,"ax",%progbits
 972              		.align	1
 973              		.global	NRF24_setPayloadSize
ARM GAS  C:\Users\sangt\AppData\Local\Temp\cc5NRPvh.s 			page 24


 974              		.syntax unified
 975              		.thumb
 976              		.thumb_func
 978              	NRF24_setPayloadSize:
 979              	.LVL84:
 980              	.LFB97:
 358:Drivers/NRF24L01/Src/MY_NRF24.c **** // 22. Set payload size
 359:Drivers/NRF24L01/Src/MY_NRF24.c **** void NRF24_setPayloadSize(uint8_t size) {
 981              		.loc 1 359 41 is_stmt 1 view -0
 982              		.cfi_startproc
 983              		@ args = 0, pretend = 0, frame = 0
 984              		@ frame_needed = 0, uses_anonymous_args = 0
 985              		@ link register save eliminated.
 360:Drivers/NRF24L01/Src/MY_NRF24.c ****     const uint8_t max_payload_size = 32;
 986              		.loc 1 360 5 view .LVU173
 361:Drivers/NRF24L01/Src/MY_NRF24.c ****     payload_size = MIN(size, max_payload_size);
 987              		.loc 1 361 5 view .LVU174
 988              		.loc 1 361 20 is_stmt 0 view .LVU175
 989 0000 2028     		cmp	r0, #32
 990 0002 28BF     		it	cs
 991 0004 2020     		movcs	r0, #32
 992              	.LVL85:
 993              		.loc 1 361 18 view .LVU176
 994 0006 014B     		ldr	r3, .L69
 995 0008 1870     		strb	r0, [r3]
 362:Drivers/NRF24L01/Src/MY_NRF24.c **** }
 996              		.loc 1 362 1 view .LVU177
 997 000a 7047     		bx	lr
 998              	.L70:
 999              		.align	2
 1000              	.L69:
 1001 000c 00000000 		.word	.LANCHOR5
 1002              		.cfi_endproc
 1003              	.LFE97:
 1005              		.section	.text.NRF24_getPayloadSize,"ax",%progbits
 1006              		.align	1
 1007              		.global	NRF24_getPayloadSize
 1008              		.syntax unified
 1009              		.thumb
 1010              		.thumb_func
 1012              	NRF24_getPayloadSize:
 1013              	.LFB98:
 363:Drivers/NRF24L01/Src/MY_NRF24.c **** // 23. Get payload size
 364:Drivers/NRF24L01/Src/MY_NRF24.c **** uint8_t NRF24_getPayloadSize(void) { return payload_size; }
 1014              		.loc 1 364 36 is_stmt 1 view -0
 1015              		.cfi_startproc
 1016              		@ args = 0, pretend = 0, frame = 0
 1017              		@ frame_needed = 0, uses_anonymous_args = 0
 1018              		@ link register save eliminated.
 1019              		.loc 1 364 38 view .LVU179
 1020              		.loc 1 364 59 is_stmt 0 view .LVU180
 1021 0000 014B     		ldr	r3, .L72
 1022 0002 1878     		ldrb	r0, [r3]	@ zero_extendqisi2
 1023 0004 7047     		bx	lr
 1024              	.L73:
 1025 0006 00BF     		.align	2
 1026              	.L72:
ARM GAS  C:\Users\sangt\AppData\Local\Temp\cc5NRPvh.s 			page 25


 1027 0008 00000000 		.word	.LANCHOR5
 1028              		.cfi_endproc
 1029              	.LFE98:
 1031              		.section	.text.NRF24_read_payload,"ax",%progbits
 1032              		.align	1
 1033              		.global	NRF24_read_payload
 1034              		.syntax unified
 1035              		.thumb
 1036              		.thumb_func
 1038              	NRF24_read_payload:
 1039              	.LVL86:
 1040              	.LFB83:
 143:Drivers/NRF24L01/Src/MY_NRF24.c ****     uint8_t cmdRxBuf;
 1041              		.loc 1 143 49 is_stmt 1 view -0
 1042              		.cfi_startproc
 1043              		@ args = 0, pretend = 0, frame = 8
 1044              		@ frame_needed = 0, uses_anonymous_args = 0
 143:Drivers/NRF24L01/Src/MY_NRF24.c ****     uint8_t cmdRxBuf;
 1045              		.loc 1 143 49 is_stmt 0 view .LVU182
 1046 0000 70B5     		push	{r4, r5, r6, lr}
 1047              	.LCFI31:
 1048              		.cfi_def_cfa_offset 16
 1049              		.cfi_offset 4, -16
 1050              		.cfi_offset 5, -12
 1051              		.cfi_offset 6, -8
 1052              		.cfi_offset 14, -4
 1053 0002 82B0     		sub	sp, sp, #8
 1054              	.LCFI32:
 1055              		.cfi_def_cfa_offset 24
 1056 0004 0646     		mov	r6, r0
 1057 0006 0D46     		mov	r5, r1
 144:Drivers/NRF24L01/Src/MY_NRF24.c ****     // Get data length using payload size
 1058              		.loc 1 144 5 is_stmt 1 view .LVU183
 146:Drivers/NRF24L01/Src/MY_NRF24.c ****     // Read data from Rx payload buffer
 1059              		.loc 1 146 5 view .LVU184
 146:Drivers/NRF24L01/Src/MY_NRF24.c ****     // Read data from Rx payload buffer
 1060              		.loc 1 146 24 is_stmt 0 view .LVU185
 1061 0008 FFF7FEFF 		bl	NRF24_getPayloadSize
 1062              	.LVL87:
 146:Drivers/NRF24L01/Src/MY_NRF24.c ****     // Read data from Rx payload buffer
 1063              		.loc 1 146 24 view .LVU186
 1064 000c 0446     		mov	r4, r0
 146:Drivers/NRF24L01/Src/MY_NRF24.c ****     // Read data from Rx payload buffer
 1065              		.loc 1 146 13 view .LVU187
 1066 000e A842     		cmp	r0, r5
 1067 0010 00D9     		bls	.L75
 1068 0012 2C46     		mov	r4, r5
 1069              	.L75:
 1070              	.LVL88:
 148:Drivers/NRF24L01/Src/MY_NRF24.c ****     cmdRxBuf = CMD_R_RX_PAYLOAD;
 1071              		.loc 1 148 5 is_stmt 1 discriminator 4 view .LVU188
 1072 0014 0020     		movs	r0, #0
 1073 0016 FFF7FEFF 		bl	NRF24_csn
 1074              	.LVL89:
 149:Drivers/NRF24L01/Src/MY_NRF24.c ****     HAL_SPI_Transmit(&nrf24_hspi, &cmdRxBuf, 1, 100);
 1075              		.loc 1 149 5 discriminator 4 view .LVU189
 149:Drivers/NRF24L01/Src/MY_NRF24.c ****     HAL_SPI_Transmit(&nrf24_hspi, &cmdRxBuf, 1, 100);
ARM GAS  C:\Users\sangt\AppData\Local\Temp\cc5NRPvh.s 			page 26


 1076              		.loc 1 149 14 is_stmt 0 discriminator 4 view .LVU190
 1077 001a 6123     		movs	r3, #97
 1078 001c 8DF80730 		strb	r3, [sp, #7]
 150:Drivers/NRF24L01/Src/MY_NRF24.c ****     HAL_SPI_Receive(&nrf24_hspi, buf, data_len, 100);
 1079              		.loc 1 150 5 is_stmt 1 discriminator 4 view .LVU191
 1080 0020 094D     		ldr	r5, .L77
 1081 0022 6423     		movs	r3, #100
 1082 0024 0122     		movs	r2, #1
 1083 0026 0DF10701 		add	r1, sp, #7
 1084 002a 2846     		mov	r0, r5
 1085 002c FFF7FEFF 		bl	HAL_SPI_Transmit
 1086              	.LVL90:
 151:Drivers/NRF24L01/Src/MY_NRF24.c ****     NRF24_csn(1);
 1087              		.loc 1 151 5 discriminator 4 view .LVU192
 1088 0030 6423     		movs	r3, #100
 1089 0032 A2B2     		uxth	r2, r4
 1090 0034 3146     		mov	r1, r6
 1091 0036 2846     		mov	r0, r5
 1092 0038 FFF7FEFF 		bl	HAL_SPI_Receive
 1093              	.LVL91:
 152:Drivers/NRF24L01/Src/MY_NRF24.c **** }
 1094              		.loc 1 152 5 discriminator 4 view .LVU193
 1095 003c 0120     		movs	r0, #1
 1096 003e FFF7FEFF 		bl	NRF24_csn
 1097              	.LVL92:
 153:Drivers/NRF24L01/Src/MY_NRF24.c **** 
 1098              		.loc 1 153 1 is_stmt 0 discriminator 4 view .LVU194
 1099 0042 02B0     		add	sp, sp, #8
 1100              	.LCFI33:
 1101              		.cfi_def_cfa_offset 16
 1102              		@ sp needed
 1103 0044 70BD     		pop	{r4, r5, r6, pc}
 1104              	.LVL93:
 1105              	.L78:
 153:Drivers/NRF24L01/Src/MY_NRF24.c **** 
 1106              		.loc 1 153 1 discriminator 4 view .LVU195
 1107 0046 00BF     		.align	2
 1108              	.L77:
 1109 0048 00000000 		.word	.LANCHOR3
 1110              		.cfi_endproc
 1111              	.LFE83:
 1113              		.section	.text.NRF24_getDynamicPayloadSize,"ax",%progbits
 1114              		.align	1
 1115              		.global	NRF24_getDynamicPayloadSize
 1116              		.syntax unified
 1117              		.thumb
 1118              		.thumb_func
 1120              	NRF24_getDynamicPayloadSize:
 1121              	.LFB99:
 365:Drivers/NRF24L01/Src/MY_NRF24.c **** // 24. Get dynamic payload size, of latest packet received
 366:Drivers/NRF24L01/Src/MY_NRF24.c **** uint8_t NRF24_getDynamicPayloadSize(void) {
 1122              		.loc 1 366 43 is_stmt 1 view -0
 1123              		.cfi_startproc
 1124              		@ args = 0, pretend = 0, frame = 0
 1125              		@ frame_needed = 0, uses_anonymous_args = 0
 1126 0000 08B5     		push	{r3, lr}
 1127              	.LCFI34:
ARM GAS  C:\Users\sangt\AppData\Local\Temp\cc5NRPvh.s 			page 27


 1128              		.cfi_def_cfa_offset 8
 1129              		.cfi_offset 3, -8
 1130              		.cfi_offset 14, -4
 367:Drivers/NRF24L01/Src/MY_NRF24.c ****     return NRF24_read_register(CMD_R_RX_PL_WID);
 1131              		.loc 1 367 5 view .LVU197
 1132              		.loc 1 367 12 is_stmt 0 view .LVU198
 1133 0002 6020     		movs	r0, #96
 1134 0004 FFF7FEFF 		bl	NRF24_read_register
 1135              	.LVL94:
 368:Drivers/NRF24L01/Src/MY_NRF24.c **** }
 1136              		.loc 1 368 1 view .LVU199
 1137 0008 08BD     		pop	{r3, pc}
 1138              		.cfi_endproc
 1139              	.LFE99:
 1141              		.section	.text.NRF24_read,"ax",%progbits
 1142              		.align	1
 1143              		.global	NRF24_read
 1144              		.syntax unified
 1145              		.thumb
 1146              		.thumb_func
 1148              	NRF24_read:
 1149              	.LVL95:
 1150              	.LFB92:
 311:Drivers/NRF24L01/Src/MY_NRF24.c ****     NRF24_read_payload(buf, len);
 1151              		.loc 1 311 41 is_stmt 1 view -0
 1152              		.cfi_startproc
 1153              		@ args = 0, pretend = 0, frame = 0
 1154              		@ frame_needed = 0, uses_anonymous_args = 0
 311:Drivers/NRF24L01/Src/MY_NRF24.c ****     NRF24_read_payload(buf, len);
 1155              		.loc 1 311 41 is_stmt 0 view .LVU201
 1156 0000 10B5     		push	{r4, lr}
 1157              	.LCFI35:
 1158              		.cfi_def_cfa_offset 8
 1159              		.cfi_offset 4, -8
 1160              		.cfi_offset 14, -4
 312:Drivers/NRF24L01/Src/MY_NRF24.c ****     uint8_t rxStatus = NRF24_read_register(REG_FIFO_STATUS) & _BV(BIT_RX_EMPTY);
 1161              		.loc 1 312 5 is_stmt 1 view .LVU202
 1162 0002 FFF7FEFF 		bl	NRF24_read_payload
 1163              	.LVL96:
 313:Drivers/NRF24L01/Src/MY_NRF24.c ****     NRF24_flush_rx();
 1164              		.loc 1 313 5 view .LVU203
 313:Drivers/NRF24L01/Src/MY_NRF24.c ****     NRF24_flush_rx();
 1165              		.loc 1 313 24 is_stmt 0 view .LVU204
 1166 0006 1720     		movs	r0, #23
 1167 0008 FFF7FEFF 		bl	NRF24_read_register
 1168              	.LVL97:
 313:Drivers/NRF24L01/Src/MY_NRF24.c ****     NRF24_flush_rx();
 1169              		.loc 1 313 13 view .LVU205
 1170 000c 00F00104 		and	r4, r0, #1
 1171              	.LVL98:
 314:Drivers/NRF24L01/Src/MY_NRF24.c ****     NRF24_getDynamicPayloadSize();
 1172              		.loc 1 314 5 is_stmt 1 view .LVU206
 1173 0010 FFF7FEFF 		bl	NRF24_flush_rx
 1174              	.LVL99:
 315:Drivers/NRF24L01/Src/MY_NRF24.c ****     return rxStatus;
 1175              		.loc 1 315 5 view .LVU207
 1176 0014 FFF7FEFF 		bl	NRF24_getDynamicPayloadSize
ARM GAS  C:\Users\sangt\AppData\Local\Temp\cc5NRPvh.s 			page 28


 1177              	.LVL100:
 316:Drivers/NRF24L01/Src/MY_NRF24.c **** }
 1178              		.loc 1 316 5 view .LVU208
 317:Drivers/NRF24L01/Src/MY_NRF24.c **** // 18. Open Tx pipe for writing (Cannot perform this while Listenning, has to
 1179              		.loc 1 317 1 is_stmt 0 view .LVU209
 1180 0018 2046     		mov	r0, r4
 1181 001a 10BD     		pop	{r4, pc}
 317:Drivers/NRF24L01/Src/MY_NRF24.c **** // 18. Open Tx pipe for writing (Cannot perform this while Listenning, has to
 1182              		.loc 1 317 1 view .LVU210
 1183              		.cfi_endproc
 1184              	.LFE92:
 1186              		.section	.text.NRF24_disableDynamicPayloads,"ax",%progbits
 1187              		.align	1
 1188              		.global	NRF24_disableDynamicPayloads
 1189              		.syntax unified
 1190              		.thumb
 1191              		.thumb_func
 1193              	NRF24_disableDynamicPayloads:
 1194              	.LFB102:
 369:Drivers/NRF24L01/Src/MY_NRF24.c **** // 25. Enable payload on Ackknowledge packet
 370:Drivers/NRF24L01/Src/MY_NRF24.c **** void NRF24_enableAckPayload(void) {
 371:Drivers/NRF24L01/Src/MY_NRF24.c ****     // Need to enable dynamic payload and Ack payload together
 372:Drivers/NRF24L01/Src/MY_NRF24.c ****     NRF24_write_register(REG_FEATURE, NRF24_read_register(REG_FEATURE) |
 373:Drivers/NRF24L01/Src/MY_NRF24.c ****                                           _BV(BIT_EN_ACK_PAY) |
 374:Drivers/NRF24L01/Src/MY_NRF24.c ****                                           _BV(BIT_EN_DPL));
 375:Drivers/NRF24L01/Src/MY_NRF24.c ****     if (!NRF24_read_register(REG_FEATURE)) {
 376:Drivers/NRF24L01/Src/MY_NRF24.c ****         NRF24_ACTIVATE_cmd();
 377:Drivers/NRF24L01/Src/MY_NRF24.c ****         NRF24_write_register(REG_FEATURE, NRF24_read_register(REG_FEATURE) |
 378:Drivers/NRF24L01/Src/MY_NRF24.c ****                                               _BV(BIT_EN_ACK_PAY) |
 379:Drivers/NRF24L01/Src/MY_NRF24.c ****                                               _BV(BIT_EN_DPL));
 380:Drivers/NRF24L01/Src/MY_NRF24.c ****     }
 381:Drivers/NRF24L01/Src/MY_NRF24.c ****     // Enable dynamic payload on pipes 0 & 1
 382:Drivers/NRF24L01/Src/MY_NRF24.c ****     NRF24_write_register(REG_DYNPD, NRF24_read_register(REG_DYNPD) |
 383:Drivers/NRF24L01/Src/MY_NRF24.c ****                                         _BV(BIT_DPL_P1) | _BV(BIT_DPL_P0));
 384:Drivers/NRF24L01/Src/MY_NRF24.c **** }
 385:Drivers/NRF24L01/Src/MY_NRF24.c **** // 26. Enable dynamic payloads
 386:Drivers/NRF24L01/Src/MY_NRF24.c **** void NRF24_enableDynamicPayloads(void) {
 387:Drivers/NRF24L01/Src/MY_NRF24.c ****     // Enable dynamic payload through FEATURE register
 388:Drivers/NRF24L01/Src/MY_NRF24.c ****     NRF24_write_register(REG_FEATURE,
 389:Drivers/NRF24L01/Src/MY_NRF24.c ****                          NRF24_read_register(REG_FEATURE) | _BV(BIT_EN_DPL));
 390:Drivers/NRF24L01/Src/MY_NRF24.c ****     if (!NRF24_read_register(REG_FEATURE)) {
 391:Drivers/NRF24L01/Src/MY_NRF24.c ****         NRF24_ACTIVATE_cmd();
 392:Drivers/NRF24L01/Src/MY_NRF24.c ****         NRF24_write_register(
 393:Drivers/NRF24L01/Src/MY_NRF24.c ****             REG_FEATURE, NRF24_read_register(REG_FEATURE) | _BV(BIT_EN_DPL));
 394:Drivers/NRF24L01/Src/MY_NRF24.c ****     }
 395:Drivers/NRF24L01/Src/MY_NRF24.c ****     // Enable Dynamic payload on all pipes
 396:Drivers/NRF24L01/Src/MY_NRF24.c ****     NRF24_write_register(REG_DYNPD, NRF24_read_register(REG_DYNPD) |
 397:Drivers/NRF24L01/Src/MY_NRF24.c ****                                         _BV(BIT_DPL_P5) | _BV(BIT_DPL_P4) |
 398:Drivers/NRF24L01/Src/MY_NRF24.c ****                                         _BV(BIT_DPL_P3) | _BV(BIT_DPL_P2) |
 399:Drivers/NRF24L01/Src/MY_NRF24.c ****                                         _BV(BIT_DPL_P1) | _BV(BIT_DPL_P0));
 400:Drivers/NRF24L01/Src/MY_NRF24.c ****     dynamic_payloads_enabled = true;
 401:Drivers/NRF24L01/Src/MY_NRF24.c **** }
 402:Drivers/NRF24L01/Src/MY_NRF24.c **** void NRF24_disableDynamicPayloads(void) {
 1195              		.loc 1 402 41 is_stmt 1 view -0
 1196              		.cfi_startproc
 1197              		@ args = 0, pretend = 0, frame = 0
 1198              		@ frame_needed = 0, uses_anonymous_args = 0
ARM GAS  C:\Users\sangt\AppData\Local\Temp\cc5NRPvh.s 			page 29


 1199 0000 08B5     		push	{r3, lr}
 1200              	.LCFI36:
 1201              		.cfi_def_cfa_offset 8
 1202              		.cfi_offset 3, -8
 1203              		.cfi_offset 14, -4
 403:Drivers/NRF24L01/Src/MY_NRF24.c ****     NRF24_write_register(REG_FEATURE,
 1204              		.loc 1 403 5 view .LVU212
 404:Drivers/NRF24L01/Src/MY_NRF24.c ****                          NRF24_read_register(REG_FEATURE) & ~(_BV(BIT_EN_DPL)));
 1205              		.loc 1 404 26 is_stmt 0 view .LVU213
 1206 0002 1D20     		movs	r0, #29
 1207 0004 FFF7FEFF 		bl	NRF24_read_register
 1208              	.LVL101:
 403:Drivers/NRF24L01/Src/MY_NRF24.c ****     NRF24_write_register(REG_FEATURE,
 1209              		.loc 1 403 5 view .LVU214
 1210 0008 00F0FB01 		and	r1, r0, #251
 1211 000c 1D20     		movs	r0, #29
 1212 000e FFF7FEFF 		bl	NRF24_write_register
 1213              	.LVL102:
 405:Drivers/NRF24L01/Src/MY_NRF24.c ****     // Disable for all pipes
 406:Drivers/NRF24L01/Src/MY_NRF24.c ****     NRF24_write_register(REG_DYNPD, 0);
 1214              		.loc 1 406 5 is_stmt 1 view .LVU215
 1215 0012 0021     		movs	r1, #0
 1216 0014 1C20     		movs	r0, #28
 1217 0016 FFF7FEFF 		bl	NRF24_write_register
 1218              	.LVL103:
 407:Drivers/NRF24L01/Src/MY_NRF24.c ****     dynamic_payloads_enabled = false;
 1219              		.loc 1 407 5 view .LVU216
 1220              		.loc 1 407 30 is_stmt 0 view .LVU217
 1221 001a 024B     		ldr	r3, .L85
 1222 001c 0022     		movs	r2, #0
 1223 001e 1A70     		strb	r2, [r3]
 408:Drivers/NRF24L01/Src/MY_NRF24.c **** }
 1224              		.loc 1 408 1 view .LVU218
 1225 0020 08BD     		pop	{r3, pc}
 1226              	.L86:
 1227 0022 00BF     		.align	2
 1228              	.L85:
 1229 0024 00000000 		.word	.LANCHOR8
 1230              		.cfi_endproc
 1231              	.LFE102:
 1233              		.section	.text.NRF24_isNRF_Plus,"ax",%progbits
 1234              		.align	1
 1235              		.global	NRF24_isNRF_Plus
 1236              		.syntax unified
 1237              		.thumb
 1238              		.thumb_func
 1240              	NRF24_isNRF_Plus:
 1241              	.LFB103:
 409:Drivers/NRF24L01/Src/MY_NRF24.c **** // 27. Check if module is NRF24L01+ or normal module
 410:Drivers/NRF24L01/Src/MY_NRF24.c **** bool NRF24_isNRF_Plus(void) { return p_variant; }
 1242              		.loc 1 410 29 is_stmt 1 view -0
 1243              		.cfi_startproc
 1244              		@ args = 0, pretend = 0, frame = 0
 1245              		@ frame_needed = 0, uses_anonymous_args = 0
 1246              		@ link register save eliminated.
 1247              		.loc 1 410 31 view .LVU220
 1248              		.loc 1 410 49 is_stmt 0 view .LVU221
ARM GAS  C:\Users\sangt\AppData\Local\Temp\cc5NRPvh.s 			page 30


 1249 0000 0020     		movs	r0, #0
 1250 0002 7047     		bx	lr
 1251              		.cfi_endproc
 1252              	.LFE103:
 1254              		.section	.text.NRF24_setAutoAck,"ax",%progbits
 1255              		.align	1
 1256              		.global	NRF24_setAutoAck
 1257              		.syntax unified
 1258              		.thumb
 1259              		.thumb_func
 1261              	NRF24_setAutoAck:
 1262              	.LVL104:
 1263              	.LFB104:
 411:Drivers/NRF24L01/Src/MY_NRF24.c **** // 28. Set Auto Ack for all
 412:Drivers/NRF24L01/Src/MY_NRF24.c **** void NRF24_setAutoAck(bool enable) {
 1264              		.loc 1 412 36 is_stmt 1 view -0
 1265              		.cfi_startproc
 1266              		@ args = 0, pretend = 0, frame = 0
 1267              		@ frame_needed = 0, uses_anonymous_args = 0
 1268              		.loc 1 412 36 is_stmt 0 view .LVU223
 1269 0000 08B5     		push	{r3, lr}
 1270              	.LCFI37:
 1271              		.cfi_def_cfa_offset 8
 1272              		.cfi_offset 3, -8
 1273              		.cfi_offset 14, -4
 413:Drivers/NRF24L01/Src/MY_NRF24.c ****     if (enable)
 1274              		.loc 1 413 5 is_stmt 1 view .LVU224
 1275              		.loc 1 413 8 is_stmt 0 view .LVU225
 1276 0002 20B1     		cbz	r0, .L89
 414:Drivers/NRF24L01/Src/MY_NRF24.c ****         NRF24_write_register(REG_EN_AA, 0x3F);
 1277              		.loc 1 414 9 is_stmt 1 view .LVU226
 1278 0004 3F21     		movs	r1, #63
 1279 0006 0120     		movs	r0, #1
 1280              	.LVL105:
 1281              		.loc 1 414 9 is_stmt 0 view .LVU227
 1282 0008 FFF7FEFF 		bl	NRF24_write_register
 1283              	.LVL106:
 1284              	.L88:
 415:Drivers/NRF24L01/Src/MY_NRF24.c ****     else
 416:Drivers/NRF24L01/Src/MY_NRF24.c ****         NRF24_write_register(REG_EN_AA, 0x00);
 417:Drivers/NRF24L01/Src/MY_NRF24.c **** }
 1285              		.loc 1 417 1 view .LVU228
 1286 000c 08BD     		pop	{r3, pc}
 1287              	.LVL107:
 1288              	.L89:
 416:Drivers/NRF24L01/Src/MY_NRF24.c **** }
 1289              		.loc 1 416 9 is_stmt 1 view .LVU229
 1290 000e 0021     		movs	r1, #0
 1291 0010 0120     		movs	r0, #1
 1292              	.LVL108:
 416:Drivers/NRF24L01/Src/MY_NRF24.c **** }
 1293              		.loc 1 416 9 is_stmt 0 view .LVU230
 1294 0012 FFF7FEFF 		bl	NRF24_write_register
 1295              	.LVL109:
 1296              		.loc 1 417 1 view .LVU231
 1297 0016 F9E7     		b	.L88
 1298              		.cfi_endproc
ARM GAS  C:\Users\sangt\AppData\Local\Temp\cc5NRPvh.s 			page 31


 1299              	.LFE104:
 1301              		.section	.text.NRF24_setAutoAckPipe,"ax",%progbits
 1302              		.align	1
 1303              		.global	NRF24_setAutoAckPipe
 1304              		.syntax unified
 1305              		.thumb
 1306              		.thumb_func
 1308              	NRF24_setAutoAckPipe:
 1309              	.LVL110:
 1310              	.LFB105:
 418:Drivers/NRF24L01/Src/MY_NRF24.c **** // 29. Set Auto Ack for certain pipe
 419:Drivers/NRF24L01/Src/MY_NRF24.c **** void NRF24_setAutoAckPipe(uint8_t pipe, bool enable) {
 1311              		.loc 1 419 54 is_stmt 1 view -0
 1312              		.cfi_startproc
 1313              		@ args = 0, pretend = 0, frame = 0
 1314              		@ frame_needed = 0, uses_anonymous_args = 0
 420:Drivers/NRF24L01/Src/MY_NRF24.c ****     if (pipe <= 6) {
 1315              		.loc 1 420 5 view .LVU233
 1316              		.loc 1 420 8 is_stmt 0 view .LVU234
 1317 0000 0628     		cmp	r0, #6
 1318 0002 00D9     		bls	.L100
 1319 0004 7047     		bx	lr
 1320              	.L100:
 419:Drivers/NRF24L01/Src/MY_NRF24.c ****     if (pipe <= 6) {
 1321              		.loc 1 419 54 view .LVU235
 1322 0006 38B5     		push	{r3, r4, r5, lr}
 1323              	.LCFI38:
 1324              		.cfi_def_cfa_offset 16
 1325              		.cfi_offset 3, -16
 1326              		.cfi_offset 4, -12
 1327              		.cfi_offset 5, -8
 1328              		.cfi_offset 14, -4
 1329 0008 0446     		mov	r4, r0
 1330 000a 0D46     		mov	r5, r1
 1331              	.LBB2:
 421:Drivers/NRF24L01/Src/MY_NRF24.c ****         uint8_t en_aa = NRF24_read_register(REG_EN_AA);
 1332              		.loc 1 421 9 is_stmt 1 view .LVU236
 1333              		.loc 1 421 25 is_stmt 0 view .LVU237
 1334 000c 0120     		movs	r0, #1
 1335              	.LVL111:
 1336              		.loc 1 421 25 view .LVU238
 1337 000e FFF7FEFF 		bl	NRF24_read_register
 1338              	.LVL112:
 422:Drivers/NRF24L01/Src/MY_NRF24.c ****         if (enable) {
 1339              		.loc 1 422 9 is_stmt 1 view .LVU239
 1340              		.loc 1 422 12 is_stmt 0 view .LVU240
 1341 0012 3DB1     		cbz	r5, .L94
 423:Drivers/NRF24L01/Src/MY_NRF24.c ****             en_aa |= _BV(pipe);
 1342              		.loc 1 423 13 is_stmt 1 view .LVU241
 1343              		.loc 1 423 22 is_stmt 0 view .LVU242
 1344 0014 0121     		movs	r1, #1
 1345 0016 A140     		lsls	r1, r1, r4
 1346              		.loc 1 423 19 view .LVU243
 1347 0018 0143     		orrs	r1, r1, r0
 1348 001a C9B2     		uxtb	r1, r1
 1349              	.LVL113:
 1350              	.L95:
ARM GAS  C:\Users\sangt\AppData\Local\Temp\cc5NRPvh.s 			page 32


 424:Drivers/NRF24L01/Src/MY_NRF24.c ****         } else {
 425:Drivers/NRF24L01/Src/MY_NRF24.c ****             en_aa &= ~_BV(pipe);
 426:Drivers/NRF24L01/Src/MY_NRF24.c ****         }
 427:Drivers/NRF24L01/Src/MY_NRF24.c ****         NRF24_write_register(REG_EN_AA, en_aa);
 1351              		.loc 1 427 9 is_stmt 1 view .LVU244
 1352 001c 0120     		movs	r0, #1
 1353 001e FFF7FEFF 		bl	NRF24_write_register
 1354              	.LVL114:
 1355              		.loc 1 427 9 is_stmt 0 view .LVU245
 1356              	.LBE2:
 428:Drivers/NRF24L01/Src/MY_NRF24.c ****     }
 429:Drivers/NRF24L01/Src/MY_NRF24.c **** }
 1357              		.loc 1 429 1 view .LVU246
 1358 0022 38BD     		pop	{r3, r4, r5, pc}
 1359              	.LVL115:
 1360              	.L94:
 1361              	.LBB3:
 425:Drivers/NRF24L01/Src/MY_NRF24.c ****         }
 1362              		.loc 1 425 13 is_stmt 1 view .LVU247
 425:Drivers/NRF24L01/Src/MY_NRF24.c ****         }
 1363              		.loc 1 425 23 is_stmt 0 view .LVU248
 1364 0024 0121     		movs	r1, #1
 1365 0026 A140     		lsls	r1, r1, r4
 425:Drivers/NRF24L01/Src/MY_NRF24.c ****         }
 1366              		.loc 1 425 19 view .LVU249
 1367 0028 20EA0101 		bic	r1, r0, r1
 1368 002c C9B2     		uxtb	r1, r1
 1369              	.LVL116:
 425:Drivers/NRF24L01/Src/MY_NRF24.c ****         }
 1370              		.loc 1 425 19 view .LVU250
 1371 002e F5E7     		b	.L95
 1372              	.LBE3:
 1373              		.cfi_endproc
 1374              	.LFE105:
 1376              		.section	.text.NRF24_setPALevel,"ax",%progbits
 1377              		.align	1
 1378              		.global	NRF24_setPALevel
 1379              		.syntax unified
 1380              		.thumb
 1381              		.thumb_func
 1383              	NRF24_setPALevel:
 1384              	.LVL117:
 1385              	.LFB106:
 430:Drivers/NRF24L01/Src/MY_NRF24.c **** // 30. Set transmit power level
 431:Drivers/NRF24L01/Src/MY_NRF24.c **** void NRF24_setPALevel(rf24_pa_dbm_e level) {
 1386              		.loc 1 431 44 is_stmt 1 view -0
 1387              		.cfi_startproc
 1388              		@ args = 0, pretend = 0, frame = 0
 1389              		@ frame_needed = 0, uses_anonymous_args = 0
 1390              		.loc 1 431 44 is_stmt 0 view .LVU252
 1391 0000 10B5     		push	{r4, lr}
 1392              	.LCFI39:
 1393              		.cfi_def_cfa_offset 8
 1394              		.cfi_offset 4, -8
 1395              		.cfi_offset 14, -4
 1396 0002 0446     		mov	r4, r0
 432:Drivers/NRF24L01/Src/MY_NRF24.c ****     uint8_t setup = NRF24_read_register(REG_RF_SETUP);
ARM GAS  C:\Users\sangt\AppData\Local\Temp\cc5NRPvh.s 			page 33


 1397              		.loc 1 432 5 is_stmt 1 view .LVU253
 1398              		.loc 1 432 21 is_stmt 0 view .LVU254
 1399 0004 0620     		movs	r0, #6
 1400              	.LVL118:
 1401              		.loc 1 432 21 view .LVU255
 1402 0006 FFF7FEFF 		bl	NRF24_read_register
 1403              	.LVL119:
 433:Drivers/NRF24L01/Src/MY_NRF24.c ****     setup &= ~(_BV(RF_PWR_LOW) | _BV(RF_PWR_HIGH));
 1404              		.loc 1 433 5 is_stmt 1 view .LVU256
 1405              		.loc 1 433 11 is_stmt 0 view .LVU257
 1406 000a 00F0F901 		and	r1, r0, #249
 1407              	.LVL120:
 434:Drivers/NRF24L01/Src/MY_NRF24.c **** 
 435:Drivers/NRF24L01/Src/MY_NRF24.c ****     // switch uses RAM (evil!)
 436:Drivers/NRF24L01/Src/MY_NRF24.c ****     if (level == RF24_PA_0dB) {
 1408              		.loc 1 436 5 is_stmt 1 view .LVU258
 1409              		.loc 1 436 8 is_stmt 0 view .LVU259
 1410 000e 032C     		cmp	r4, #3
 1411 0010 09D0     		beq	.L107
 437:Drivers/NRF24L01/Src/MY_NRF24.c ****         setup |= (_BV(RF_PWR_LOW) | _BV(RF_PWR_HIGH));
 438:Drivers/NRF24L01/Src/MY_NRF24.c ****     } else if (level == RF24_PA_m6dB) {
 1412              		.loc 1 438 12 is_stmt 1 view .LVU260
 1413              		.loc 1 438 15 is_stmt 0 view .LVU261
 1414 0012 022C     		cmp	r4, #2
 1415 0014 0DD0     		beq	.L108
 439:Drivers/NRF24L01/Src/MY_NRF24.c ****         setup |= _BV(RF_PWR_HIGH);
 440:Drivers/NRF24L01/Src/MY_NRF24.c ****     } else if (level == RF24_PA_m12dB) {
 1416              		.loc 1 440 12 is_stmt 1 view .LVU262
 1417              		.loc 1 440 15 is_stmt 0 view .LVU263
 1418 0016 012C     		cmp	r4, #1
 1419 0018 0ED0     		beq	.L109
 441:Drivers/NRF24L01/Src/MY_NRF24.c ****         setup |= _BV(RF_PWR_LOW);
 442:Drivers/NRF24L01/Src/MY_NRF24.c ****     } else if (level == RF24_PA_m18dB) {
 1420              		.loc 1 442 12 is_stmt 1 view .LVU264
 1421              		.loc 1 442 15 is_stmt 0 view .LVU265
 1422 001a 34B1     		cbz	r4, .L103
 443:Drivers/NRF24L01/Src/MY_NRF24.c ****         // nothing
 444:Drivers/NRF24L01/Src/MY_NRF24.c ****     } else if (level == RF24_PA_ERROR) {
 1423              		.loc 1 444 12 is_stmt 1 view .LVU266
 1424              		.loc 1 444 15 is_stmt 0 view .LVU267
 1425 001c 042C     		cmp	r4, #4
 1426 001e 04D1     		bne	.L103
 445:Drivers/NRF24L01/Src/MY_NRF24.c ****         // On error, go to maximum PA
 446:Drivers/NRF24L01/Src/MY_NRF24.c ****         setup |= (_BV(RF_PWR_LOW) | _BV(RF_PWR_HIGH));
 1427              		.loc 1 446 9 is_stmt 1 view .LVU268
 1428              		.loc 1 446 15 is_stmt 0 view .LVU269
 1429 0020 41F00601 		orr	r1, r1, #6
 1430              	.LVL121:
 1431              		.loc 1 446 15 view .LVU270
 1432 0024 01E0     		b	.L103
 1433              	.L107:
 437:Drivers/NRF24L01/Src/MY_NRF24.c ****     } else if (level == RF24_PA_m6dB) {
 1434              		.loc 1 437 9 is_stmt 1 view .LVU271
 437:Drivers/NRF24L01/Src/MY_NRF24.c ****     } else if (level == RF24_PA_m6dB) {
 1435              		.loc 1 437 15 is_stmt 0 view .LVU272
 1436 0026 41F00601 		orr	r1, r1, #6
 1437              	.LVL122:
ARM GAS  C:\Users\sangt\AppData\Local\Temp\cc5NRPvh.s 			page 34


 1438              	.L103:
 447:Drivers/NRF24L01/Src/MY_NRF24.c ****     }
 448:Drivers/NRF24L01/Src/MY_NRF24.c **** 
 449:Drivers/NRF24L01/Src/MY_NRF24.c ****     NRF24_write_register(REG_RF_SETUP, setup);
 1439              		.loc 1 449 5 is_stmt 1 view .LVU273
 1440 002a 0620     		movs	r0, #6
 1441 002c FFF7FEFF 		bl	NRF24_write_register
 1442              	.LVL123:
 450:Drivers/NRF24L01/Src/MY_NRF24.c **** }
 1443              		.loc 1 450 1 is_stmt 0 view .LVU274
 1444 0030 10BD     		pop	{r4, pc}
 1445              	.LVL124:
 1446              	.L108:
 439:Drivers/NRF24L01/Src/MY_NRF24.c ****     } else if (level == RF24_PA_m12dB) {
 1447              		.loc 1 439 9 is_stmt 1 view .LVU275
 439:Drivers/NRF24L01/Src/MY_NRF24.c ****     } else if (level == RF24_PA_m12dB) {
 1448              		.loc 1 439 15 is_stmt 0 view .LVU276
 1449 0032 41F00401 		orr	r1, r1, #4
 1450              	.LVL125:
 439:Drivers/NRF24L01/Src/MY_NRF24.c ****     } else if (level == RF24_PA_m12dB) {
 1451              		.loc 1 439 15 view .LVU277
 1452 0036 F8E7     		b	.L103
 1453              	.L109:
 441:Drivers/NRF24L01/Src/MY_NRF24.c ****     } else if (level == RF24_PA_m18dB) {
 1454              		.loc 1 441 9 is_stmt 1 view .LVU278
 441:Drivers/NRF24L01/Src/MY_NRF24.c ****     } else if (level == RF24_PA_m18dB) {
 1455              		.loc 1 441 15 is_stmt 0 view .LVU279
 1456 0038 41F00201 		orr	r1, r1, #2
 1457              	.LVL126:
 441:Drivers/NRF24L01/Src/MY_NRF24.c ****     } else if (level == RF24_PA_m18dB) {
 1458              		.loc 1 441 15 view .LVU280
 1459 003c F5E7     		b	.L103
 1460              		.cfi_endproc
 1461              	.LFE106:
 1463              		.section	.text.NRF24_getPALevel,"ax",%progbits
 1464              		.align	1
 1465              		.global	NRF24_getPALevel
 1466              		.syntax unified
 1467              		.thumb
 1468              		.thumb_func
 1470              	NRF24_getPALevel:
 1471              	.LFB107:
 451:Drivers/NRF24L01/Src/MY_NRF24.c **** // 31. Get transmit power level
 452:Drivers/NRF24L01/Src/MY_NRF24.c **** rf24_pa_dbm_e NRF24_getPALevel(void) {
 1472              		.loc 1 452 38 is_stmt 1 view -0
 1473              		.cfi_startproc
 1474              		@ args = 0, pretend = 0, frame = 0
 1475              		@ frame_needed = 0, uses_anonymous_args = 0
 1476 0000 08B5     		push	{r3, lr}
 1477              	.LCFI40:
 1478              		.cfi_def_cfa_offset 8
 1479              		.cfi_offset 3, -8
 1480              		.cfi_offset 14, -4
 453:Drivers/NRF24L01/Src/MY_NRF24.c ****     rf24_pa_dbm_e result = RF24_PA_ERROR;
 1481              		.loc 1 453 5 view .LVU282
 1482              	.LVL127:
 454:Drivers/NRF24L01/Src/MY_NRF24.c ****     uint8_t power = NRF24_read_register(REG_RF_SETUP) &
ARM GAS  C:\Users\sangt\AppData\Local\Temp\cc5NRPvh.s 			page 35


 1483              		.loc 1 454 5 view .LVU283
 1484              		.loc 1 454 21 is_stmt 0 view .LVU284
 1485 0002 0620     		movs	r0, #6
 1486 0004 FFF7FEFF 		bl	NRF24_read_register
 1487              	.LVL128:
 1488              		.loc 1 454 13 view .LVU285
 1489 0008 00F00600 		and	r0, r0, #6
 1490              	.LVL129:
 455:Drivers/NRF24L01/Src/MY_NRF24.c ****                     (_BV(RF_PWR_LOW) | _BV(RF_PWR_HIGH));
 456:Drivers/NRF24L01/Src/MY_NRF24.c **** 
 457:Drivers/NRF24L01/Src/MY_NRF24.c ****     // switch uses RAM (evil!)
 458:Drivers/NRF24L01/Src/MY_NRF24.c ****     if (power == (_BV(RF_PWR_LOW) | _BV(RF_PWR_HIGH))) {
 1491              		.loc 1 458 5 is_stmt 1 view .LVU286
 1492              		.loc 1 458 8 is_stmt 0 view .LVU287
 1493 000c 0628     		cmp	r0, #6
 1494 000e 07D0     		beq	.L112
 459:Drivers/NRF24L01/Src/MY_NRF24.c ****         result = RF24_PA_0dB;
 460:Drivers/NRF24L01/Src/MY_NRF24.c ****     } else if (power == _BV(RF_PWR_HIGH)) {
 1495              		.loc 1 460 12 is_stmt 1 view .LVU288
 1496              		.loc 1 460 15 is_stmt 0 view .LVU289
 1497 0010 0428     		cmp	r0, #4
 1498 0012 07D0     		beq	.L113
 461:Drivers/NRF24L01/Src/MY_NRF24.c ****         result = RF24_PA_m6dB;
 462:Drivers/NRF24L01/Src/MY_NRF24.c ****     } else if (power == _BV(RF_PWR_LOW)) {
 1499              		.loc 1 462 12 is_stmt 1 view .LVU290
 1500              		.loc 1 462 15 is_stmt 0 view .LVU291
 1501 0014 0228     		cmp	r0, #2
 1502 0016 01D0     		beq	.L116
 463:Drivers/NRF24L01/Src/MY_NRF24.c ****         result = RF24_PA_m12dB;
 464:Drivers/NRF24L01/Src/MY_NRF24.c ****     } else {
 465:Drivers/NRF24L01/Src/MY_NRF24.c ****         result = RF24_PA_m18dB;
 1503              		.loc 1 465 16 view .LVU292
 1504 0018 0020     		movs	r0, #0
 1505              	.LVL130:
 1506              	.L111:
 466:Drivers/NRF24L01/Src/MY_NRF24.c ****     }
 467:Drivers/NRF24L01/Src/MY_NRF24.c **** 
 468:Drivers/NRF24L01/Src/MY_NRF24.c ****     return result;
 1507              		.loc 1 468 5 is_stmt 1 view .LVU293
 469:Drivers/NRF24L01/Src/MY_NRF24.c **** }
 1508              		.loc 1 469 1 is_stmt 0 view .LVU294
 1509 001a 08BD     		pop	{r3, pc}
 1510              	.LVL131:
 1511              	.L116:
 463:Drivers/NRF24L01/Src/MY_NRF24.c ****         result = RF24_PA_m12dB;
 1512              		.loc 1 463 16 view .LVU295
 1513 001c 0120     		movs	r0, #1
 1514              	.LVL132:
 463:Drivers/NRF24L01/Src/MY_NRF24.c ****         result = RF24_PA_m12dB;
 1515              		.loc 1 463 16 view .LVU296
 1516 001e FCE7     		b	.L111
 1517              	.LVL133:
 1518              	.L112:
 459:Drivers/NRF24L01/Src/MY_NRF24.c ****     } else if (power == _BV(RF_PWR_HIGH)) {
 1519              		.loc 1 459 16 view .LVU297
 1520 0020 0320     		movs	r0, #3
 1521              	.LVL134:
ARM GAS  C:\Users\sangt\AppData\Local\Temp\cc5NRPvh.s 			page 36


 459:Drivers/NRF24L01/Src/MY_NRF24.c ****     } else if (power == _BV(RF_PWR_HIGH)) {
 1522              		.loc 1 459 16 view .LVU298
 1523 0022 FAE7     		b	.L111
 1524              	.LVL135:
 1525              	.L113:
 461:Drivers/NRF24L01/Src/MY_NRF24.c ****     } else if (power == _BV(RF_PWR_LOW)) {
 1526              		.loc 1 461 16 view .LVU299
 1527 0024 0220     		movs	r0, #2
 1528              	.LVL136:
 461:Drivers/NRF24L01/Src/MY_NRF24.c ****     } else if (power == _BV(RF_PWR_LOW)) {
 1529              		.loc 1 461 16 view .LVU300
 1530 0026 F8E7     		b	.L111
 1531              		.cfi_endproc
 1532              	.LFE107:
 1534              		.section	.text.NRF24_setDataRate,"ax",%progbits
 1535              		.align	1
 1536              		.global	NRF24_setDataRate
 1537              		.syntax unified
 1538              		.thumb
 1539              		.thumb_func
 1541              	NRF24_setDataRate:
 1542              	.LVL137:
 1543              	.LFB108:
 470:Drivers/NRF24L01/Src/MY_NRF24.c **** // 32. Set data rate (250 Kbps, 1Mbps, 2Mbps)
 471:Drivers/NRF24L01/Src/MY_NRF24.c **** bool NRF24_setDataRate(rf24_datarate_e speed) {
 1544              		.loc 1 471 47 is_stmt 1 view -0
 1545              		.cfi_startproc
 1546              		@ args = 0, pretend = 0, frame = 0
 1547              		@ frame_needed = 0, uses_anonymous_args = 0
 1548              		.loc 1 471 47 is_stmt 0 view .LVU302
 1549 0000 38B5     		push	{r3, r4, r5, lr}
 1550              	.LCFI41:
 1551              		.cfi_def_cfa_offset 16
 1552              		.cfi_offset 3, -16
 1553              		.cfi_offset 4, -12
 1554              		.cfi_offset 5, -8
 1555              		.cfi_offset 14, -4
 1556 0002 0546     		mov	r5, r0
 472:Drivers/NRF24L01/Src/MY_NRF24.c ****     bool result = false;
 1557              		.loc 1 472 5 is_stmt 1 view .LVU303
 1558              	.LVL138:
 473:Drivers/NRF24L01/Src/MY_NRF24.c ****     uint8_t setup = NRF24_read_register(REG_RF_SETUP);
 1559              		.loc 1 473 5 view .LVU304
 1560              		.loc 1 473 21 is_stmt 0 view .LVU305
 1561 0004 0620     		movs	r0, #6
 1562              	.LVL139:
 1563              		.loc 1 473 21 view .LVU306
 1564 0006 FFF7FEFF 		bl	NRF24_read_register
 1565              	.LVL140:
 474:Drivers/NRF24L01/Src/MY_NRF24.c **** 
 475:Drivers/NRF24L01/Src/MY_NRF24.c ****     // HIGH and LOW '00' is 1Mbs - our default
 476:Drivers/NRF24L01/Src/MY_NRF24.c ****     wide_band = false;
 1566              		.loc 1 476 5 is_stmt 1 view .LVU307
 1567              		.loc 1 476 15 is_stmt 0 view .LVU308
 1568 000a 124B     		ldr	r3, .L126
 1569 000c 0022     		movs	r2, #0
 1570 000e 1A70     		strb	r2, [r3]
ARM GAS  C:\Users\sangt\AppData\Local\Temp\cc5NRPvh.s 			page 37


 477:Drivers/NRF24L01/Src/MY_NRF24.c ****     setup &= ~(_BV(RF_DR_LOW) | _BV(RF_DR_HIGH));
 1571              		.loc 1 477 5 is_stmt 1 view .LVU309
 1572              		.loc 1 477 11 is_stmt 0 view .LVU310
 1573 0010 00F0D704 		and	r4, r0, #215
 1574              	.LVL141:
 478:Drivers/NRF24L01/Src/MY_NRF24.c ****     if (speed == RF24_250KBPS) {
 1575              		.loc 1 478 5 is_stmt 1 view .LVU311
 1576              		.loc 1 478 8 is_stmt 0 view .LVU312
 1577 0014 022D     		cmp	r5, #2
 1578 0016 11D0     		beq	.L124
 479:Drivers/NRF24L01/Src/MY_NRF24.c ****         // Must set the RF_DR_LOW to 1; RF_DR_HIGH (used to be RF_DR) is already
 480:Drivers/NRF24L01/Src/MY_NRF24.c ****         // 0 Making it '10'.
 481:Drivers/NRF24L01/Src/MY_NRF24.c ****         wide_band = false;
 482:Drivers/NRF24L01/Src/MY_NRF24.c ****         setup |= _BV(RF_DR_LOW);
 483:Drivers/NRF24L01/Src/MY_NRF24.c ****     } else {
 484:Drivers/NRF24L01/Src/MY_NRF24.c ****         // Set 2Mbs, RF_DR (RF_DR_HIGH) is set 1
 485:Drivers/NRF24L01/Src/MY_NRF24.c ****         // Making it '01'
 486:Drivers/NRF24L01/Src/MY_NRF24.c ****         if (speed == RF24_2MBPS) {
 1579              		.loc 1 486 9 is_stmt 1 view .LVU313
 1580              		.loc 1 486 12 is_stmt 0 view .LVU314
 1581 0018 012D     		cmp	r5, #1
 1582 001a 13D0     		beq	.L125
 487:Drivers/NRF24L01/Src/MY_NRF24.c ****             wide_band = true;
 488:Drivers/NRF24L01/Src/MY_NRF24.c ****             setup |= _BV(RF_DR_HIGH);
 489:Drivers/NRF24L01/Src/MY_NRF24.c ****         } else {
 490:Drivers/NRF24L01/Src/MY_NRF24.c ****             // 1Mbs
 491:Drivers/NRF24L01/Src/MY_NRF24.c ****             wide_band = false;
 1583              		.loc 1 491 13 is_stmt 1 view .LVU315
 1584              		.loc 1 491 23 is_stmt 0 view .LVU316
 1585 001c 0D4B     		ldr	r3, .L126
 1586 001e 0022     		movs	r2, #0
 1587 0020 1A70     		strb	r2, [r3]
 1588              	.L119:
 492:Drivers/NRF24L01/Src/MY_NRF24.c ****         }
 493:Drivers/NRF24L01/Src/MY_NRF24.c ****     }
 494:Drivers/NRF24L01/Src/MY_NRF24.c ****     NRF24_write_register(REG_RF_SETUP, setup);
 1589              		.loc 1 494 5 is_stmt 1 view .LVU317
 1590 0022 2146     		mov	r1, r4
 1591 0024 0620     		movs	r0, #6
 1592 0026 FFF7FEFF 		bl	NRF24_write_register
 1593              	.LVL142:
 495:Drivers/NRF24L01/Src/MY_NRF24.c **** 
 496:Drivers/NRF24L01/Src/MY_NRF24.c ****     // Verify our result
 497:Drivers/NRF24L01/Src/MY_NRF24.c ****     if (NRF24_read_register(REG_RF_SETUP) == setup) {
 1594              		.loc 1 497 5 view .LVU318
 1595              		.loc 1 497 9 is_stmt 0 view .LVU319
 1596 002a 0620     		movs	r0, #6
 1597 002c FFF7FEFF 		bl	NRF24_read_register
 1598              	.LVL143:
 1599              		.loc 1 497 8 view .LVU320
 1600 0030 A042     		cmp	r0, r4
 1601 0032 0DD0     		beq	.L122
 498:Drivers/NRF24L01/Src/MY_NRF24.c ****         result = true;
 499:Drivers/NRF24L01/Src/MY_NRF24.c ****     } else {
 500:Drivers/NRF24L01/Src/MY_NRF24.c ****         wide_band = false;
 1602              		.loc 1 500 9 is_stmt 1 view .LVU321
 1603              		.loc 1 500 19 is_stmt 0 view .LVU322
ARM GAS  C:\Users\sangt\AppData\Local\Temp\cc5NRPvh.s 			page 38


 1604 0034 0020     		movs	r0, #0
 1605 0036 074B     		ldr	r3, .L126
 1606 0038 1870     		strb	r0, [r3]
 1607              	.L121:
 1608              	.LVL144:
 501:Drivers/NRF24L01/Src/MY_NRF24.c ****     }
 502:Drivers/NRF24L01/Src/MY_NRF24.c **** 
 503:Drivers/NRF24L01/Src/MY_NRF24.c ****     return result;
 1609              		.loc 1 503 5 is_stmt 1 view .LVU323
 504:Drivers/NRF24L01/Src/MY_NRF24.c **** }
 1610              		.loc 1 504 1 is_stmt 0 view .LVU324
 1611 003a 38BD     		pop	{r3, r4, r5, pc}
 1612              	.LVL145:
 1613              	.L124:
 481:Drivers/NRF24L01/Src/MY_NRF24.c ****         setup |= _BV(RF_DR_LOW);
 1614              		.loc 1 481 9 is_stmt 1 view .LVU325
 481:Drivers/NRF24L01/Src/MY_NRF24.c ****         setup |= _BV(RF_DR_LOW);
 1615              		.loc 1 481 19 is_stmt 0 view .LVU326
 1616 003c 1A70     		strb	r2, [r3]
 482:Drivers/NRF24L01/Src/MY_NRF24.c ****     } else {
 1617              		.loc 1 482 9 is_stmt 1 view .LVU327
 482:Drivers/NRF24L01/Src/MY_NRF24.c ****     } else {
 1618              		.loc 1 482 15 is_stmt 0 view .LVU328
 1619 003e 44F02004 		orr	r4, r4, #32
 1620              	.LVL146:
 482:Drivers/NRF24L01/Src/MY_NRF24.c ****     } else {
 1621              		.loc 1 482 15 view .LVU329
 1622 0042 EEE7     		b	.L119
 1623              	.L125:
 487:Drivers/NRF24L01/Src/MY_NRF24.c ****             setup |= _BV(RF_DR_HIGH);
 1624              		.loc 1 487 13 is_stmt 1 view .LVU330
 487:Drivers/NRF24L01/Src/MY_NRF24.c ****             setup |= _BV(RF_DR_HIGH);
 1625              		.loc 1 487 23 is_stmt 0 view .LVU331
 1626 0044 034B     		ldr	r3, .L126
 1627 0046 0122     		movs	r2, #1
 1628 0048 1A70     		strb	r2, [r3]
 488:Drivers/NRF24L01/Src/MY_NRF24.c ****         } else {
 1629              		.loc 1 488 13 is_stmt 1 view .LVU332
 488:Drivers/NRF24L01/Src/MY_NRF24.c ****         } else {
 1630              		.loc 1 488 19 is_stmt 0 view .LVU333
 1631 004a 44F00804 		orr	r4, r4, #8
 1632              	.LVL147:
 488:Drivers/NRF24L01/Src/MY_NRF24.c ****         } else {
 1633              		.loc 1 488 19 view .LVU334
 1634 004e E8E7     		b	.L119
 1635              	.L122:
 498:Drivers/NRF24L01/Src/MY_NRF24.c ****     } else {
 1636              		.loc 1 498 16 view .LVU335
 1637 0050 0120     		movs	r0, #1
 1638 0052 F2E7     		b	.L121
 1639              	.L127:
 1640              		.align	2
 1641              	.L126:
 1642 0054 00000000 		.word	.LANCHOR9
 1643              		.cfi_endproc
 1644              	.LFE108:
 1646              		.section	.text.NRF24_getDataRate,"ax",%progbits
ARM GAS  C:\Users\sangt\AppData\Local\Temp\cc5NRPvh.s 			page 39


 1647              		.align	1
 1648              		.global	NRF24_getDataRate
 1649              		.syntax unified
 1650              		.thumb
 1651              		.thumb_func
 1653              	NRF24_getDataRate:
 1654              	.LFB109:
 505:Drivers/NRF24L01/Src/MY_NRF24.c **** // 33. Get data rate
 506:Drivers/NRF24L01/Src/MY_NRF24.c **** rf24_datarate_e NRF24_getDataRate(void) {
 1655              		.loc 1 506 41 is_stmt 1 view -0
 1656              		.cfi_startproc
 1657              		@ args = 0, pretend = 0, frame = 0
 1658              		@ frame_needed = 0, uses_anonymous_args = 0
 1659 0000 08B5     		push	{r3, lr}
 1660              	.LCFI42:
 1661              		.cfi_def_cfa_offset 8
 1662              		.cfi_offset 3, -8
 1663              		.cfi_offset 14, -4
 507:Drivers/NRF24L01/Src/MY_NRF24.c ****     rf24_datarate_e result;
 1664              		.loc 1 507 5 view .LVU337
 508:Drivers/NRF24L01/Src/MY_NRF24.c ****     uint8_t dr =
 1665              		.loc 1 508 5 view .LVU338
 509:Drivers/NRF24L01/Src/MY_NRF24.c ****         NRF24_read_register(REG_RF_SETUP) & (_BV(RF_DR_LOW) | _BV(RF_DR_HIGH));
 1666              		.loc 1 509 9 is_stmt 0 view .LVU339
 1667 0002 0620     		movs	r0, #6
 1668 0004 FFF7FEFF 		bl	NRF24_read_register
 1669              	.LVL148:
 508:Drivers/NRF24L01/Src/MY_NRF24.c ****     uint8_t dr =
 1670              		.loc 1 508 13 view .LVU340
 1671 0008 00F02800 		and	r0, r0, #40
 1672              	.LVL149:
 510:Drivers/NRF24L01/Src/MY_NRF24.c **** 
 511:Drivers/NRF24L01/Src/MY_NRF24.c ****     // switch uses RAM (evil!)
 512:Drivers/NRF24L01/Src/MY_NRF24.c ****     // Order matters in our case below
 513:Drivers/NRF24L01/Src/MY_NRF24.c ****     if (dr == _BV(RF_DR_LOW)) {
 1673              		.loc 1 513 5 is_stmt 1 view .LVU341
 1674              		.loc 1 513 8 is_stmt 0 view .LVU342
 1675 000c 2028     		cmp	r0, #32
 1676 000e 05D0     		beq	.L130
 514:Drivers/NRF24L01/Src/MY_NRF24.c ****         // '10' = 250KBPS
 515:Drivers/NRF24L01/Src/MY_NRF24.c ****         result = RF24_250KBPS;
 516:Drivers/NRF24L01/Src/MY_NRF24.c ****     } else if (dr == _BV(RF_DR_HIGH)) {
 1677              		.loc 1 516 12 is_stmt 1 view .LVU343
 1678              		.loc 1 516 15 is_stmt 0 view .LVU344
 1679 0010 0828     		cmp	r0, #8
 1680 0012 01D0     		beq	.L133
 517:Drivers/NRF24L01/Src/MY_NRF24.c ****         // '01' = 2MBPS
 518:Drivers/NRF24L01/Src/MY_NRF24.c ****         result = RF24_2MBPS;
 519:Drivers/NRF24L01/Src/MY_NRF24.c ****     } else {
 520:Drivers/NRF24L01/Src/MY_NRF24.c ****         // '00' = 1MBPS
 521:Drivers/NRF24L01/Src/MY_NRF24.c ****         result = RF24_1MBPS;
 1681              		.loc 1 521 16 view .LVU345
 1682 0014 0020     		movs	r0, #0
 1683              	.LVL150:
 1684              	.L129:
 522:Drivers/NRF24L01/Src/MY_NRF24.c ****     }
 523:Drivers/NRF24L01/Src/MY_NRF24.c ****     return result;
ARM GAS  C:\Users\sangt\AppData\Local\Temp\cc5NRPvh.s 			page 40


 1685              		.loc 1 523 5 is_stmt 1 view .LVU346
 524:Drivers/NRF24L01/Src/MY_NRF24.c **** }
 1686              		.loc 1 524 1 is_stmt 0 view .LVU347
 1687 0016 08BD     		pop	{r3, pc}
 1688              	.LVL151:
 1689              	.L133:
 518:Drivers/NRF24L01/Src/MY_NRF24.c ****     } else {
 1690              		.loc 1 518 16 view .LVU348
 1691 0018 0120     		movs	r0, #1
 1692              	.LVL152:
 518:Drivers/NRF24L01/Src/MY_NRF24.c ****     } else {
 1693              		.loc 1 518 16 view .LVU349
 1694 001a FCE7     		b	.L129
 1695              	.LVL153:
 1696              	.L130:
 515:Drivers/NRF24L01/Src/MY_NRF24.c ****     } else if (dr == _BV(RF_DR_HIGH)) {
 1697              		.loc 1 515 16 view .LVU350
 1698 001c 0220     		movs	r0, #2
 1699              	.LVL154:
 515:Drivers/NRF24L01/Src/MY_NRF24.c ****     } else if (dr == _BV(RF_DR_HIGH)) {
 1700              		.loc 1 515 16 view .LVU351
 1701 001e FAE7     		b	.L129
 1702              		.cfi_endproc
 1703              	.LFE109:
 1705              		.section	.text.NRF24_setCRCLength,"ax",%progbits
 1706              		.align	1
 1707              		.global	NRF24_setCRCLength
 1708              		.syntax unified
 1709              		.thumb
 1710              		.thumb_func
 1712              	NRF24_setCRCLength:
 1713              	.LVL155:
 1714              	.LFB110:
 525:Drivers/NRF24L01/Src/MY_NRF24.c **** // 34. Set crc length (disable, 8-bits or 16-bits)
 526:Drivers/NRF24L01/Src/MY_NRF24.c **** void NRF24_setCRCLength(rf24_crclength_e length) {
 1715              		.loc 1 526 50 is_stmt 1 view -0
 1716              		.cfi_startproc
 1717              		@ args = 0, pretend = 0, frame = 0
 1718              		@ frame_needed = 0, uses_anonymous_args = 0
 1719              		.loc 1 526 50 is_stmt 0 view .LVU353
 1720 0000 10B5     		push	{r4, lr}
 1721              	.LCFI43:
 1722              		.cfi_def_cfa_offset 8
 1723              		.cfi_offset 4, -8
 1724              		.cfi_offset 14, -4
 1725 0002 0446     		mov	r4, r0
 527:Drivers/NRF24L01/Src/MY_NRF24.c ****     uint8_t config =
 1726              		.loc 1 527 5 is_stmt 1 view .LVU354
 528:Drivers/NRF24L01/Src/MY_NRF24.c ****         NRF24_read_register(REG_CONFIG) & ~(_BV(BIT_CRCO) | _BV(BIT_EN_CRC));
 1727              		.loc 1 528 9 is_stmt 0 view .LVU355
 1728 0004 0020     		movs	r0, #0
 1729              	.LVL156:
 1730              		.loc 1 528 9 view .LVU356
 1731 0006 FFF7FEFF 		bl	NRF24_read_register
 1732              	.LVL157:
 527:Drivers/NRF24L01/Src/MY_NRF24.c ****     uint8_t config =
 1733              		.loc 1 527 13 view .LVU357
ARM GAS  C:\Users\sangt\AppData\Local\Temp\cc5NRPvh.s 			page 41


 1734 000a 00F0F301 		and	r1, r0, #243
 1735              	.LVL158:
 529:Drivers/NRF24L01/Src/MY_NRF24.c **** 
 530:Drivers/NRF24L01/Src/MY_NRF24.c ****     // switch uses RAM
 531:Drivers/NRF24L01/Src/MY_NRF24.c ****     if (length == RF24_CRC_DISABLED) {
 1736              		.loc 1 531 5 is_stmt 1 view .LVU358
 1737              		.loc 1 531 8 is_stmt 0 view .LVU359
 1738 000e 1CB1     		cbz	r4, .L135
 532:Drivers/NRF24L01/Src/MY_NRF24.c ****         // Do nothing, we turned it off above.
 533:Drivers/NRF24L01/Src/MY_NRF24.c ****     } else if (length == RF24_CRC_8) {
 1739              		.loc 1 533 12 is_stmt 1 view .LVU360
 1740              		.loc 1 533 15 is_stmt 0 view .LVU361
 1741 0010 012C     		cmp	r4, #1
 1742 0012 05D0     		beq	.L138
 534:Drivers/NRF24L01/Src/MY_NRF24.c ****         config |= _BV(BIT_EN_CRC);
 535:Drivers/NRF24L01/Src/MY_NRF24.c ****     } else {
 536:Drivers/NRF24L01/Src/MY_NRF24.c ****         config |= _BV(BIT_EN_CRC);
 1743              		.loc 1 536 9 is_stmt 1 view .LVU362
 1744              	.LVL159:
 537:Drivers/NRF24L01/Src/MY_NRF24.c ****         config |= _BV(BIT_CRCO);
 1745              		.loc 1 537 9 view .LVU363
 1746              		.loc 1 537 16 is_stmt 0 view .LVU364
 1747 0014 41F00C01 		orr	r1, r1, #12
 1748              	.LVL160:
 1749              	.L135:
 538:Drivers/NRF24L01/Src/MY_NRF24.c ****     }
 539:Drivers/NRF24L01/Src/MY_NRF24.c ****     NRF24_write_register(REG_CONFIG, config);
 1750              		.loc 1 539 5 is_stmt 1 view .LVU365
 1751 0018 0020     		movs	r0, #0
 1752 001a FFF7FEFF 		bl	NRF24_write_register
 1753              	.LVL161:
 540:Drivers/NRF24L01/Src/MY_NRF24.c **** }
 1754              		.loc 1 540 1 is_stmt 0 view .LVU366
 1755 001e 10BD     		pop	{r4, pc}
 1756              	.LVL162:
 1757              	.L138:
 534:Drivers/NRF24L01/Src/MY_NRF24.c ****     } else {
 1758              		.loc 1 534 9 is_stmt 1 view .LVU367
 534:Drivers/NRF24L01/Src/MY_NRF24.c ****     } else {
 1759              		.loc 1 534 16 is_stmt 0 view .LVU368
 1760 0020 41F00801 		orr	r1, r1, #8
 1761              	.LVL163:
 534:Drivers/NRF24L01/Src/MY_NRF24.c ****     } else {
 1762              		.loc 1 534 16 view .LVU369
 1763 0024 F8E7     		b	.L135
 1764              		.cfi_endproc
 1765              	.LFE110:
 1767              		.section	.text.NRF24_getCRCLength,"ax",%progbits
 1768              		.align	1
 1769              		.global	NRF24_getCRCLength
 1770              		.syntax unified
 1771              		.thumb
 1772              		.thumb_func
 1774              	NRF24_getCRCLength:
 1775              	.LFB111:
 541:Drivers/NRF24L01/Src/MY_NRF24.c **** // 35. Get CRC length
 542:Drivers/NRF24L01/Src/MY_NRF24.c **** rf24_crclength_e NRF24_getCRCLength(void) {
ARM GAS  C:\Users\sangt\AppData\Local\Temp\cc5NRPvh.s 			page 42


 1776              		.loc 1 542 43 is_stmt 1 view -0
 1777              		.cfi_startproc
 1778              		@ args = 0, pretend = 0, frame = 0
 1779              		@ frame_needed = 0, uses_anonymous_args = 0
 1780 0000 08B5     		push	{r3, lr}
 1781              	.LCFI44:
 1782              		.cfi_def_cfa_offset 8
 1783              		.cfi_offset 3, -8
 1784              		.cfi_offset 14, -4
 543:Drivers/NRF24L01/Src/MY_NRF24.c ****     rf24_crclength_e result = RF24_CRC_DISABLED;
 1785              		.loc 1 543 5 view .LVU371
 1786              	.LVL164:
 544:Drivers/NRF24L01/Src/MY_NRF24.c ****     uint8_t config =
 1787              		.loc 1 544 5 view .LVU372
 545:Drivers/NRF24L01/Src/MY_NRF24.c ****         NRF24_read_register(REG_CONFIG) & (_BV(BIT_CRCO) | _BV(BIT_EN_CRC));
 1788              		.loc 1 545 9 is_stmt 0 view .LVU373
 1789 0002 0020     		movs	r0, #0
 1790 0004 FFF7FEFF 		bl	NRF24_read_register
 1791              	.LVL165:
 1792 0008 0346     		mov	r3, r0
 1793              	.LVL166:
 546:Drivers/NRF24L01/Src/MY_NRF24.c **** 
 547:Drivers/NRF24L01/Src/MY_NRF24.c ****     if (config & _BV(BIT_EN_CRC)) {
 1794              		.loc 1 547 5 is_stmt 1 view .LVU374
 1795              		.loc 1 547 8 is_stmt 0 view .LVU375
 1796 000a 10F00800 		ands	r0, r0, #8
 1797              	.LVL167:
 1798              		.loc 1 547 8 view .LVU376
 1799 000e 03D0     		beq	.L140
 548:Drivers/NRF24L01/Src/MY_NRF24.c ****         if (config & _BV(BIT_CRCO))
 1800              		.loc 1 548 9 is_stmt 1 view .LVU377
 1801              		.loc 1 548 12 is_stmt 0 view .LVU378
 1802 0010 13F0040F 		tst	r3, #4
 1803 0014 01D1     		bne	.L143
 549:Drivers/NRF24L01/Src/MY_NRF24.c ****             result = RF24_CRC_16;
 550:Drivers/NRF24L01/Src/MY_NRF24.c ****         else
 551:Drivers/NRF24L01/Src/MY_NRF24.c ****             result = RF24_CRC_8;
 1804              		.loc 1 551 20 view .LVU379
 1805 0016 0120     		movs	r0, #1
 1806              	.L140:
 1807              	.LVL168:
 552:Drivers/NRF24L01/Src/MY_NRF24.c ****     }
 553:Drivers/NRF24L01/Src/MY_NRF24.c **** 
 554:Drivers/NRF24L01/Src/MY_NRF24.c ****     return result;
 1808              		.loc 1 554 5 is_stmt 1 view .LVU380
 555:Drivers/NRF24L01/Src/MY_NRF24.c **** }
 1809              		.loc 1 555 1 is_stmt 0 view .LVU381
 1810 0018 08BD     		pop	{r3, pc}
 1811              	.LVL169:
 1812              	.L143:
 549:Drivers/NRF24L01/Src/MY_NRF24.c ****             result = RF24_CRC_16;
 1813              		.loc 1 549 20 view .LVU382
 1814 001a 0220     		movs	r0, #2
 1815 001c FCE7     		b	.L140
 1816              		.cfi_endproc
 1817              	.LFE111:
 1819              		.section	.text.NRF24_disableCRC,"ax",%progbits
ARM GAS  C:\Users\sangt\AppData\Local\Temp\cc5NRPvh.s 			page 43


 1820              		.align	1
 1821              		.global	NRF24_disableCRC
 1822              		.syntax unified
 1823              		.thumb
 1824              		.thumb_func
 1826              	NRF24_disableCRC:
 1827              	.LFB112:
 556:Drivers/NRF24L01/Src/MY_NRF24.c **** // 36. Disable CRC
 557:Drivers/NRF24L01/Src/MY_NRF24.c **** void NRF24_disableCRC(void) {
 1828              		.loc 1 557 29 is_stmt 1 view -0
 1829              		.cfi_startproc
 1830              		@ args = 0, pretend = 0, frame = 0
 1831              		@ frame_needed = 0, uses_anonymous_args = 0
 1832 0000 08B5     		push	{r3, lr}
 1833              	.LCFI45:
 1834              		.cfi_def_cfa_offset 8
 1835              		.cfi_offset 3, -8
 1836              		.cfi_offset 14, -4
 558:Drivers/NRF24L01/Src/MY_NRF24.c ****     uint8_t disable = NRF24_read_register(REG_CONFIG) & ~_BV(BIT_EN_CRC);
 1837              		.loc 1 558 5 view .LVU384
 1838              		.loc 1 558 23 is_stmt 0 view .LVU385
 1839 0002 0020     		movs	r0, #0
 1840 0004 FFF7FEFF 		bl	NRF24_read_register
 1841              	.LVL170:
 559:Drivers/NRF24L01/Src/MY_NRF24.c ****     NRF24_write_register(REG_CONFIG, disable);
 1842              		.loc 1 559 5 is_stmt 1 view .LVU386
 1843 0008 00F0F701 		and	r1, r0, #247
 1844 000c 0020     		movs	r0, #0
 1845              	.LVL171:
 1846              		.loc 1 559 5 is_stmt 0 view .LVU387
 1847 000e FFF7FEFF 		bl	NRF24_write_register
 1848              	.LVL172:
 560:Drivers/NRF24L01/Src/MY_NRF24.c **** }
 1849              		.loc 1 560 1 view .LVU388
 1850 0012 08BD     		pop	{r3, pc}
 1851              		.cfi_endproc
 1852              	.LFE112:
 1854              		.section	.text.NRF24_powerUp,"ax",%progbits
 1855              		.align	1
 1856              		.global	NRF24_powerUp
 1857              		.syntax unified
 1858              		.thumb
 1859              		.thumb_func
 1861              	NRF24_powerUp:
 1862              	.LFB113:
 561:Drivers/NRF24L01/Src/MY_NRF24.c **** // 37. power up
 562:Drivers/NRF24L01/Src/MY_NRF24.c **** void NRF24_powerUp(void) {
 1863              		.loc 1 562 26 is_stmt 1 view -0
 1864              		.cfi_startproc
 1865              		@ args = 0, pretend = 0, frame = 0
 1866              		@ frame_needed = 0, uses_anonymous_args = 0
 1867 0000 08B5     		push	{r3, lr}
 1868              	.LCFI46:
 1869              		.cfi_def_cfa_offset 8
 1870              		.cfi_offset 3, -8
 1871              		.cfi_offset 14, -4
 563:Drivers/NRF24L01/Src/MY_NRF24.c ****     NRF24_write_register(REG_CONFIG,
ARM GAS  C:\Users\sangt\AppData\Local\Temp\cc5NRPvh.s 			page 44


 1872              		.loc 1 563 5 view .LVU390
 564:Drivers/NRF24L01/Src/MY_NRF24.c ****                          NRF24_read_register(REG_CONFIG) | _BV(BIT_PWR_UP));
 1873              		.loc 1 564 26 is_stmt 0 view .LVU391
 1874 0002 0020     		movs	r0, #0
 1875 0004 FFF7FEFF 		bl	NRF24_read_register
 1876              	.LVL173:
 563:Drivers/NRF24L01/Src/MY_NRF24.c ****     NRF24_write_register(REG_CONFIG,
 1877              		.loc 1 563 5 view .LVU392
 1878 0008 40F00201 		orr	r1, r0, #2
 1879 000c C9B2     		uxtb	r1, r1
 1880 000e 0020     		movs	r0, #0
 1881 0010 FFF7FEFF 		bl	NRF24_write_register
 1882              	.LVL174:
 565:Drivers/NRF24L01/Src/MY_NRF24.c **** }
 1883              		.loc 1 565 1 view .LVU393
 1884 0014 08BD     		pop	{r3, pc}
 1885              		.cfi_endproc
 1886              	.LFE113:
 1888              		.section	.text.NRF24_powerDown,"ax",%progbits
 1889              		.align	1
 1890              		.global	NRF24_powerDown
 1891              		.syntax unified
 1892              		.thumb
 1893              		.thumb_func
 1895              	NRF24_powerDown:
 1896              	.LFB114:
 566:Drivers/NRF24L01/Src/MY_NRF24.c **** // 38. power down
 567:Drivers/NRF24L01/Src/MY_NRF24.c **** void NRF24_powerDown(void) {
 1897              		.loc 1 567 28 is_stmt 1 view -0
 1898              		.cfi_startproc
 1899              		@ args = 0, pretend = 0, frame = 0
 1900              		@ frame_needed = 0, uses_anonymous_args = 0
 1901 0000 08B5     		push	{r3, lr}
 1902              	.LCFI47:
 1903              		.cfi_def_cfa_offset 8
 1904              		.cfi_offset 3, -8
 1905              		.cfi_offset 14, -4
 568:Drivers/NRF24L01/Src/MY_NRF24.c ****     NRF24_write_register(REG_CONFIG,
 1906              		.loc 1 568 5 view .LVU395
 569:Drivers/NRF24L01/Src/MY_NRF24.c ****                          NRF24_read_register(REG_CONFIG) & ~_BV(BIT_PWR_UP));
 1907              		.loc 1 569 26 is_stmt 0 view .LVU396
 1908 0002 0020     		movs	r0, #0
 1909 0004 FFF7FEFF 		bl	NRF24_read_register
 1910              	.LVL175:
 568:Drivers/NRF24L01/Src/MY_NRF24.c ****     NRF24_write_register(REG_CONFIG,
 1911              		.loc 1 568 5 view .LVU397
 1912 0008 00F0FD01 		and	r1, r0, #253
 1913 000c 0020     		movs	r0, #0
 1914 000e FFF7FEFF 		bl	NRF24_write_register
 1915              	.LVL176:
 570:Drivers/NRF24L01/Src/MY_NRF24.c **** }
 1916              		.loc 1 570 1 view .LVU398
 1917 0012 08BD     		pop	{r3, pc}
 1918              		.cfi_endproc
 1919              	.LFE114:
 1921              		.section	.text.NRF24_availablePipe,"ax",%progbits
 1922              		.align	1
ARM GAS  C:\Users\sangt\AppData\Local\Temp\cc5NRPvh.s 			page 45


 1923              		.global	NRF24_availablePipe
 1924              		.syntax unified
 1925              		.thumb
 1926              		.thumb_func
 1928              	NRF24_availablePipe:
 1929              	.LVL177:
 1930              	.LFB115:
 571:Drivers/NRF24L01/Src/MY_NRF24.c **** // 39. Check if data are available and on which pipe (Use this for multiple rx
 572:Drivers/NRF24L01/Src/MY_NRF24.c **** // pipes)
 573:Drivers/NRF24L01/Src/MY_NRF24.c **** bool NRF24_availablePipe(uint8_t *pipe_num) {
 1931              		.loc 1 573 45 is_stmt 1 view -0
 1932              		.cfi_startproc
 1933              		@ args = 0, pretend = 0, frame = 0
 1934              		@ frame_needed = 0, uses_anonymous_args = 0
 1935              		.loc 1 573 45 is_stmt 0 view .LVU400
 1936 0000 70B5     		push	{r4, r5, r6, lr}
 1937              	.LCFI48:
 1938              		.cfi_def_cfa_offset 16
 1939              		.cfi_offset 4, -16
 1940              		.cfi_offset 5, -12
 1941              		.cfi_offset 6, -8
 1942              		.cfi_offset 14, -4
 1943 0002 0546     		mov	r5, r0
 574:Drivers/NRF24L01/Src/MY_NRF24.c ****     uint8_t status = NRF24_get_status();
 1944              		.loc 1 574 5 is_stmt 1 view .LVU401
 1945              		.loc 1 574 22 is_stmt 0 view .LVU402
 1946 0004 FFF7FEFF 		bl	NRF24_get_status
 1947              	.LVL178:
 575:Drivers/NRF24L01/Src/MY_NRF24.c **** 
 576:Drivers/NRF24L01/Src/MY_NRF24.c ****     bool result = (status & _BV(BIT_RX_DR));
 1948              		.loc 1 576 5 is_stmt 1 view .LVU403
 1949 0008 00F04003 		and	r3, r0, #64
 1950              		.loc 1 576 10 is_stmt 0 view .LVU404
 1951 000c 002B     		cmp	r3, #0
 1952 000e 14BF     		ite	ne
 1953 0010 0126     		movne	r6, #1
 1954 0012 0026     		moveq	r6, #0
 1955              	.LVL179:
 577:Drivers/NRF24L01/Src/MY_NRF24.c **** 
 578:Drivers/NRF24L01/Src/MY_NRF24.c ****     if (result) {
 1956              		.loc 1 578 5 is_stmt 1 view .LVU405
 1957              		.loc 1 578 8 is_stmt 0 view .LVU406
 1958 0014 0BD0     		beq	.L151
 1959 0016 0446     		mov	r4, r0
 579:Drivers/NRF24L01/Src/MY_NRF24.c ****         // If the caller wants the pipe number, include that
 580:Drivers/NRF24L01/Src/MY_NRF24.c ****         if (pipe_num) *pipe_num = (status >> BIT_RX_P_NO) & 0x7;
 1960              		.loc 1 580 9 is_stmt 1 view .LVU407
 1961              		.loc 1 580 12 is_stmt 0 view .LVU408
 1962 0018 15B1     		cbz	r5, .L152
 1963              		.loc 1 580 23 is_stmt 1 discriminator 1 view .LVU409
 1964              		.loc 1 580 59 is_stmt 0 discriminator 1 view .LVU410
 1965 001a C0F34203 		ubfx	r3, r0, #1, #3
 1966              		.loc 1 580 33 discriminator 1 view .LVU411
 1967 001e 2B70     		strb	r3, [r5]
 1968              	.L152:
 581:Drivers/NRF24L01/Src/MY_NRF24.c **** 
 582:Drivers/NRF24L01/Src/MY_NRF24.c ****         // Clear the status bit
ARM GAS  C:\Users\sangt\AppData\Local\Temp\cc5NRPvh.s 			page 46


 583:Drivers/NRF24L01/Src/MY_NRF24.c ****         NRF24_write_register(REG_STATUS, _BV(BIT_RX_DR));
 1969              		.loc 1 583 9 is_stmt 1 view .LVU412
 1970 0020 4021     		movs	r1, #64
 1971 0022 0720     		movs	r0, #7
 1972              	.LVL180:
 1973              		.loc 1 583 9 is_stmt 0 view .LVU413
 1974 0024 FFF7FEFF 		bl	NRF24_write_register
 1975              	.LVL181:
 584:Drivers/NRF24L01/Src/MY_NRF24.c **** 
 585:Drivers/NRF24L01/Src/MY_NRF24.c ****         // Handle ack payload receipt
 586:Drivers/NRF24L01/Src/MY_NRF24.c ****         if (status & _BV(BIT_TX_DS)) {
 1976              		.loc 1 586 9 is_stmt 1 view .LVU414
 1977              		.loc 1 586 12 is_stmt 0 view .LVU415
 1978 0028 14F0200F 		tst	r4, #32
 1979 002c 01D1     		bne	.L154
 1980              	.L151:
 587:Drivers/NRF24L01/Src/MY_NRF24.c ****             NRF24_write_register(REG_STATUS, _BV(BIT_TX_DS));
 588:Drivers/NRF24L01/Src/MY_NRF24.c ****         }
 589:Drivers/NRF24L01/Src/MY_NRF24.c ****     }
 590:Drivers/NRF24L01/Src/MY_NRF24.c ****     return result;
 1981              		.loc 1 590 5 is_stmt 1 view .LVU416
 591:Drivers/NRF24L01/Src/MY_NRF24.c **** }
 1982              		.loc 1 591 1 is_stmt 0 view .LVU417
 1983 002e 3046     		mov	r0, r6
 1984 0030 70BD     		pop	{r4, r5, r6, pc}
 1985              	.LVL182:
 1986              	.L154:
 587:Drivers/NRF24L01/Src/MY_NRF24.c ****             NRF24_write_register(REG_STATUS, _BV(BIT_TX_DS));
 1987              		.loc 1 587 13 is_stmt 1 view .LVU418
 1988 0032 2021     		movs	r1, #32
 1989 0034 0720     		movs	r0, #7
 1990 0036 FFF7FEFF 		bl	NRF24_write_register
 1991              	.LVL183:
 1992 003a F8E7     		b	.L151
 1993              		.cfi_endproc
 1994              	.LFE115:
 1996              		.section	.text.NRF24_available,"ax",%progbits
 1997              		.align	1
 1998              		.global	NRF24_available
 1999              		.syntax unified
 2000              		.thumb
 2001              		.thumb_func
 2003              	NRF24_available:
 2004              	.LFB91:
 309:Drivers/NRF24L01/Src/MY_NRF24.c **** // 17. Read received data
 2005              		.loc 1 309 28 view -0
 2006              		.cfi_startproc
 2007              		@ args = 0, pretend = 0, frame = 0
 2008              		@ frame_needed = 0, uses_anonymous_args = 0
 2009 0000 08B5     		push	{r3, lr}
 2010              	.LCFI49:
 2011              		.cfi_def_cfa_offset 8
 2012              		.cfi_offset 3, -8
 2013              		.cfi_offset 14, -4
 309:Drivers/NRF24L01/Src/MY_NRF24.c **** // 17. Read received data
 2014              		.loc 1 309 30 view .LVU420
 309:Drivers/NRF24L01/Src/MY_NRF24.c **** // 17. Read received data
ARM GAS  C:\Users\sangt\AppData\Local\Temp\cc5NRPvh.s 			page 47


 2015              		.loc 1 309 37 is_stmt 0 view .LVU421
 2016 0002 0020     		movs	r0, #0
 2017 0004 FFF7FEFF 		bl	NRF24_availablePipe
 2018              	.LVL184:
 309:Drivers/NRF24L01/Src/MY_NRF24.c **** // 17. Read received data
 2019              		.loc 1 309 64 view .LVU422
 2020 0008 08BD     		pop	{r3, pc}
 2021              		.cfi_endproc
 2022              	.LFE91:
 2024              		.section	.text.NRF24_startWrite,"ax",%progbits
 2025              		.align	1
 2026              		.global	NRF24_startWrite
 2027              		.syntax unified
 2028              		.thumb
 2029              		.thumb_func
 2031              	NRF24_startWrite:
 2032              	.LVL185:
 2033              	.LFB116:
 592:Drivers/NRF24L01/Src/MY_NRF24.c **** // 40. Start write (for IRQ mode)
 593:Drivers/NRF24L01/Src/MY_NRF24.c **** void NRF24_startWrite(const void *buf, uint8_t len) {
 2034              		.loc 1 593 53 is_stmt 1 view -0
 2035              		.cfi_startproc
 2036              		@ args = 0, pretend = 0, frame = 0
 2037              		@ frame_needed = 0, uses_anonymous_args = 0
 2038              		.loc 1 593 53 is_stmt 0 view .LVU424
 2039 0000 38B5     		push	{r3, r4, r5, lr}
 2040              	.LCFI50:
 2041              		.cfi_def_cfa_offset 16
 2042              		.cfi_offset 3, -16
 2043              		.cfi_offset 4, -12
 2044              		.cfi_offset 5, -8
 2045              		.cfi_offset 14, -4
 2046 0002 0446     		mov	r4, r0
 2047 0004 0D46     		mov	r5, r1
 594:Drivers/NRF24L01/Src/MY_NRF24.c ****     // Transmitter power-up
 595:Drivers/NRF24L01/Src/MY_NRF24.c ****     NRF24_ce(0);
 2048              		.loc 1 595 5 is_stmt 1 view .LVU425
 2049 0006 0020     		movs	r0, #0
 2050              	.LVL186:
 2051              		.loc 1 595 5 is_stmt 0 view .LVU426
 2052 0008 FFF7FEFF 		bl	NRF24_ce
 2053              	.LVL187:
 596:Drivers/NRF24L01/Src/MY_NRF24.c ****     NRF24_write_register(REG_CONFIG,
 2054              		.loc 1 596 5 is_stmt 1 view .LVU427
 597:Drivers/NRF24L01/Src/MY_NRF24.c ****                          (NRF24_read_register(REG_CONFIG) | _BV(BIT_PWR_UP)) &
 2055              		.loc 1 597 27 is_stmt 0 view .LVU428
 2056 000c 0020     		movs	r0, #0
 2057 000e FFF7FEFF 		bl	NRF24_read_register
 2058              	.LVL188:
 596:Drivers/NRF24L01/Src/MY_NRF24.c ****     NRF24_write_register(REG_CONFIG,
 2059              		.loc 1 596 5 view .LVU429
 2060 0012 20F00103 		bic	r3, r0, #1
 2061 0016 43F00203 		orr	r3, r3, #2
 2062 001a 03F0FE01 		and	r1, r3, #254
 2063 001e 0020     		movs	r0, #0
 2064 0020 FFF7FEFF 		bl	NRF24_write_register
 2065              	.LVL189:
ARM GAS  C:\Users\sangt\AppData\Local\Temp\cc5NRPvh.s 			page 48


 598:Drivers/NRF24L01/Src/MY_NRF24.c ****                              ~_BV(BIT_PRIM_RX));
 599:Drivers/NRF24L01/Src/MY_NRF24.c ****     NRF24_ce(1);
 2066              		.loc 1 599 5 is_stmt 1 view .LVU430
 2067 0024 0120     		movs	r0, #1
 2068 0026 FFF7FEFF 		bl	NRF24_ce
 2069              	.LVL190:
 600:Drivers/NRF24L01/Src/MY_NRF24.c ****     NRF24_DelayMicroSeconds(150);
 2070              		.loc 1 600 5 view .LVU431
 601:Drivers/NRF24L01/Src/MY_NRF24.c **** 
 602:Drivers/NRF24L01/Src/MY_NRF24.c ****     // Send the payload
 603:Drivers/NRF24L01/Src/MY_NRF24.c ****     NRF24_write_payload(buf, len);
 2071              		.loc 1 603 5 view .LVU432
 2072 002a 2946     		mov	r1, r5
 2073 002c 2046     		mov	r0, r4
 2074 002e FFF7FEFF 		bl	NRF24_write_payload
 2075              	.LVL191:
 604:Drivers/NRF24L01/Src/MY_NRF24.c **** 
 605:Drivers/NRF24L01/Src/MY_NRF24.c ****     // Enable Tx for 15usec
 606:Drivers/NRF24L01/Src/MY_NRF24.c ****     NRF24_ce(1);
 2076              		.loc 1 606 5 view .LVU433
 2077 0032 0120     		movs	r0, #1
 2078 0034 FFF7FEFF 		bl	NRF24_ce
 2079              	.LVL192:
 607:Drivers/NRF24L01/Src/MY_NRF24.c ****     NRF24_DelayMicroSeconds(15);
 2080              		.loc 1 607 5 view .LVU434
 608:Drivers/NRF24L01/Src/MY_NRF24.c ****     NRF24_ce(0);
 2081              		.loc 1 608 5 view .LVU435
 2082 0038 0020     		movs	r0, #0
 2083 003a FFF7FEFF 		bl	NRF24_ce
 2084              	.LVL193:
 609:Drivers/NRF24L01/Src/MY_NRF24.c **** }
 2085              		.loc 1 609 1 is_stmt 0 view .LVU436
 2086 003e 38BD     		pop	{r3, r4, r5, pc}
 2087              		.loc 1 609 1 view .LVU437
 2088              		.cfi_endproc
 2089              	.LFE116:
 2091              		.section	.text.NRF24_writeAckPayload,"ax",%progbits
 2092              		.align	1
 2093              		.global	NRF24_writeAckPayload
 2094              		.syntax unified
 2095              		.thumb
 2096              		.thumb_func
 2098              	NRF24_writeAckPayload:
 2099              	.LVL194:
 2100              	.LFB117:
 610:Drivers/NRF24L01/Src/MY_NRF24.c **** // 41. Write acknowledge payload
 611:Drivers/NRF24L01/Src/MY_NRF24.c **** void NRF24_writeAckPayload(uint8_t pipe, const void *buf, uint8_t len) {
 2101              		.loc 1 611 72 is_stmt 1 view -0
 2102              		.cfi_startproc
 2103              		@ args = 0, pretend = 0, frame = 0
 2104              		@ frame_needed = 0, uses_anonymous_args = 0
 2105              		.loc 1 611 72 is_stmt 0 view .LVU439
 2106 0000 70B5     		push	{r4, r5, r6, lr}
 2107              	.LCFI51:
 2108              		.cfi_def_cfa_offset 16
 2109              		.cfi_offset 4, -16
 2110              		.cfi_offset 5, -12
ARM GAS  C:\Users\sangt\AppData\Local\Temp\cc5NRPvh.s 			page 49


 2111              		.cfi_offset 6, -8
 2112              		.cfi_offset 14, -4
 2113 0002 0446     		mov	r4, r0
 2114 0004 0D46     		mov	r5, r1
 612:Drivers/NRF24L01/Src/MY_NRF24.c ****     const uint8_t *current = (uint8_t *)buf;
 2115              		.loc 1 612 5 is_stmt 1 view .LVU440
 2116              	.LVL195:
 613:Drivers/NRF24L01/Src/MY_NRF24.c ****     const uint8_t max_payload_size = 32;
 2117              		.loc 1 613 5 view .LVU441
 614:Drivers/NRF24L01/Src/MY_NRF24.c ****     uint8_t data_len = MIN(len, max_payload_size);
 2118              		.loc 1 614 5 view .LVU442
 2119              		.loc 1 614 13 is_stmt 0 view .LVU443
 2120 0006 202A     		cmp	r2, #32
 2121 0008 28BF     		it	cs
 2122 000a 2022     		movcs	r2, #32
 2123              	.LVL196:
 2124              		.loc 1 614 13 view .LVU444
 2125 000c 1646     		mov	r6, r2
 2126              	.LVL197:
 615:Drivers/NRF24L01/Src/MY_NRF24.c **** 
 616:Drivers/NRF24L01/Src/MY_NRF24.c ****     NRF24_csn(0);
 2127              		.loc 1 616 5 is_stmt 1 view .LVU445
 2128 000e 0020     		movs	r0, #0
 2129              	.LVL198:
 2130              		.loc 1 616 5 is_stmt 0 view .LVU446
 2131 0010 FFF7FEFF 		bl	NRF24_csn
 2132              	.LVL199:
 617:Drivers/NRF24L01/Src/MY_NRF24.c ****     NRF24_write_registerN(CMD_W_ACK_PAYLOAD | (pipe & 0x7), current, data_len);
 2133              		.loc 1 617 5 is_stmt 1 view .LVU447
 2134              		.loc 1 617 53 is_stmt 0 view .LVU448
 2135 0014 04F00700 		and	r0, r4, #7
 2136              		.loc 1 617 5 view .LVU449
 2137 0018 3246     		mov	r2, r6
 2138 001a 2946     		mov	r1, r5
 2139 001c 40F0A800 		orr	r0, r0, #168
 2140 0020 FFF7FEFF 		bl	NRF24_write_registerN
 2141              	.LVL200:
 618:Drivers/NRF24L01/Src/MY_NRF24.c ****     NRF24_csn(1);
 2142              		.loc 1 618 5 is_stmt 1 view .LVU450
 2143 0024 0120     		movs	r0, #1
 2144 0026 FFF7FEFF 		bl	NRF24_csn
 2145              	.LVL201:
 619:Drivers/NRF24L01/Src/MY_NRF24.c **** }
 2146              		.loc 1 619 1 is_stmt 0 view .LVU451
 2147 002a 70BD     		pop	{r4, r5, r6, pc}
 2148              		.loc 1 619 1 view .LVU452
 2149              		.cfi_endproc
 2150              	.LFE117:
 2152              		.section	.text.NRF24_isAckPayloadAvailable,"ax",%progbits
 2153              		.align	1
 2154              		.global	NRF24_isAckPayloadAvailable
 2155              		.syntax unified
 2156              		.thumb
 2157              		.thumb_func
 2159              	NRF24_isAckPayloadAvailable:
 2160              	.LFB118:
 620:Drivers/NRF24L01/Src/MY_NRF24.c **** // 42. Check if an Ack payload is available
ARM GAS  C:\Users\sangt\AppData\Local\Temp\cc5NRPvh.s 			page 50


 621:Drivers/NRF24L01/Src/MY_NRF24.c **** bool NRF24_isAckPayloadAvailable(void) {
 2161              		.loc 1 621 40 is_stmt 1 view -0
 2162              		.cfi_startproc
 2163              		@ args = 0, pretend = 0, frame = 0
 2164              		@ frame_needed = 0, uses_anonymous_args = 0
 2165              		@ link register save eliminated.
 622:Drivers/NRF24L01/Src/MY_NRF24.c ****     bool result = ack_payload_available;
 2166              		.loc 1 622 5 view .LVU454
 2167              		.loc 1 622 10 is_stmt 0 view .LVU455
 2168 0000 024B     		ldr	r3, .L162
 2169 0002 1878     		ldrb	r0, [r3]	@ zero_extendqisi2
 2170              	.LVL202:
 623:Drivers/NRF24L01/Src/MY_NRF24.c ****     ack_payload_available = false;
 2171              		.loc 1 623 5 is_stmt 1 view .LVU456
 2172              		.loc 1 623 27 is_stmt 0 view .LVU457
 2173 0004 0022     		movs	r2, #0
 2174 0006 1A70     		strb	r2, [r3]
 624:Drivers/NRF24L01/Src/MY_NRF24.c ****     return result;
 2175              		.loc 1 624 5 is_stmt 1 view .LVU458
 625:Drivers/NRF24L01/Src/MY_NRF24.c **** }
 2176              		.loc 1 625 1 is_stmt 0 view .LVU459
 2177 0008 7047     		bx	lr
 2178              	.L163:
 2179 000a 00BF     		.align	2
 2180              	.L162:
 2181 000c 00000000 		.word	.LANCHOR10
 2182              		.cfi_endproc
 2183              	.LFE118:
 2185              		.section	.text.NRF24_whatHappened,"ax",%progbits
 2186              		.align	1
 2187              		.global	NRF24_whatHappened
 2188              		.syntax unified
 2189              		.thumb
 2190              		.thumb_func
 2192              	NRF24_whatHappened:
 2193              	.LVL203:
 2194              	.LFB119:
 626:Drivers/NRF24L01/Src/MY_NRF24.c **** // 43. Check interrupt flags
 627:Drivers/NRF24L01/Src/MY_NRF24.c **** void NRF24_whatHappened(bool *tx_ok, bool *tx_fail, bool *rx_ready) {
 2195              		.loc 1 627 69 is_stmt 1 view -0
 2196              		.cfi_startproc
 2197              		@ args = 0, pretend = 0, frame = 0
 2198              		@ frame_needed = 0, uses_anonymous_args = 0
 2199              		.loc 1 627 69 is_stmt 0 view .LVU461
 2200 0000 F8B5     		push	{r3, r4, r5, r6, r7, lr}
 2201              	.LCFI52:
 2202              		.cfi_def_cfa_offset 24
 2203              		.cfi_offset 3, -24
 2204              		.cfi_offset 4, -20
 2205              		.cfi_offset 5, -16
 2206              		.cfi_offset 6, -12
 2207              		.cfi_offset 7, -8
 2208              		.cfi_offset 14, -4
 2209 0002 0546     		mov	r5, r0
 2210 0004 0F46     		mov	r7, r1
 2211 0006 1646     		mov	r6, r2
 628:Drivers/NRF24L01/Src/MY_NRF24.c ****     uint8_t status = NRF24_get_status();
ARM GAS  C:\Users\sangt\AppData\Local\Temp\cc5NRPvh.s 			page 51


 2212              		.loc 1 628 5 is_stmt 1 view .LVU462
 2213              		.loc 1 628 22 is_stmt 0 view .LVU463
 2214 0008 FFF7FEFF 		bl	NRF24_get_status
 2215              	.LVL204:
 2216              		.loc 1 628 22 view .LVU464
 2217 000c 0446     		mov	r4, r0
 2218              	.LVL205:
 629:Drivers/NRF24L01/Src/MY_NRF24.c ****     *tx_ok = 0;
 2219              		.loc 1 629 5 is_stmt 1 view .LVU465
 2220              		.loc 1 629 12 is_stmt 0 view .LVU466
 2221 000e 0023     		movs	r3, #0
 2222 0010 2B70     		strb	r3, [r5]
 630:Drivers/NRF24L01/Src/MY_NRF24.c ****     NRF24_write_register(REG_STATUS,
 2223              		.loc 1 630 5 is_stmt 1 view .LVU467
 2224 0012 7021     		movs	r1, #112
 2225 0014 0720     		movs	r0, #7
 2226 0016 FFF7FEFF 		bl	NRF24_write_register
 2227              	.LVL206:
 631:Drivers/NRF24L01/Src/MY_NRF24.c ****                          _BV(BIT_RX_DR) | _BV(BIT_TX_DS) | _BV(BIT_MAX_RT));
 632:Drivers/NRF24L01/Src/MY_NRF24.c ****     // Report to the user what happened
 633:Drivers/NRF24L01/Src/MY_NRF24.c ****     *tx_ok = status & _BV(BIT_TX_DS);
 2228              		.loc 1 633 5 view .LVU468
 2229              		.loc 1 633 21 is_stmt 0 view .LVU469
 2230 001a C4F34013 		ubfx	r3, r4, #5, #1
 2231              		.loc 1 633 12 view .LVU470
 2232 001e 2B70     		strb	r3, [r5]
 634:Drivers/NRF24L01/Src/MY_NRF24.c ****     *tx_fail = status & _BV(BIT_MAX_RT);
 2233              		.loc 1 634 5 is_stmt 1 view .LVU471
 2234              		.loc 1 634 23 is_stmt 0 view .LVU472
 2235 0020 C4F30013 		ubfx	r3, r4, #4, #1
 2236              		.loc 1 634 14 view .LVU473
 2237 0024 3B70     		strb	r3, [r7]
 635:Drivers/NRF24L01/Src/MY_NRF24.c ****     *rx_ready = status & _BV(BIT_RX_DR);
 2238              		.loc 1 635 5 is_stmt 1 view .LVU474
 2239              		.loc 1 635 24 is_stmt 0 view .LVU475
 2240 0026 C4F38014 		ubfx	r4, r4, #6, #1
 2241              	.LVL207:
 2242              		.loc 1 635 15 view .LVU476
 2243 002a 3470     		strb	r4, [r6]
 636:Drivers/NRF24L01/Src/MY_NRF24.c **** }
 2244              		.loc 1 636 1 view .LVU477
 2245 002c F8BD     		pop	{r3, r4, r5, r6, r7, pc}
 2246              		.loc 1 636 1 view .LVU478
 2247              		.cfi_endproc
 2248              	.LFE119:
 2250              		.section	.text.NRF24_testCarrier,"ax",%progbits
 2251              		.align	1
 2252              		.global	NRF24_testCarrier
 2253              		.syntax unified
 2254              		.thumb
 2255              		.thumb_func
 2257              	NRF24_testCarrier:
 2258              	.LFB120:
 637:Drivers/NRF24L01/Src/MY_NRF24.c **** // 44. Test if there is a carrier on the previous listenning period (useful to
 638:Drivers/NRF24L01/Src/MY_NRF24.c **** // check for intereference)
 639:Drivers/NRF24L01/Src/MY_NRF24.c **** bool NRF24_testCarrier(void) { return NRF24_read_register(REG_CD) & 1; }
 2259              		.loc 1 639 30 is_stmt 1 view -0
ARM GAS  C:\Users\sangt\AppData\Local\Temp\cc5NRPvh.s 			page 52


 2260              		.cfi_startproc
 2261              		@ args = 0, pretend = 0, frame = 0
 2262              		@ frame_needed = 0, uses_anonymous_args = 0
 2263 0000 08B5     		push	{r3, lr}
 2264              	.LCFI53:
 2265              		.cfi_def_cfa_offset 8
 2266              		.cfi_offset 3, -8
 2267              		.cfi_offset 14, -4
 2268              		.loc 1 639 32 view .LVU480
 2269              		.loc 1 639 39 is_stmt 0 view .LVU481
 2270 0002 0920     		movs	r0, #9
 2271 0004 FFF7FEFF 		bl	NRF24_read_register
 2272              	.LVL208:
 2273              		.loc 1 639 72 view .LVU482
 2274 0008 00F00100 		and	r0, r0, #1
 2275 000c 08BD     		pop	{r3, pc}
 2276              		.cfi_endproc
 2277              	.LFE120:
 2279              		.section	.text.NRF24_testRPD,"ax",%progbits
 2280              		.align	1
 2281              		.global	NRF24_testRPD
 2282              		.syntax unified
 2283              		.thumb
 2284              		.thumb_func
 2286              	NRF24_testRPD:
 2287              	.LFB121:
 640:Drivers/NRF24L01/Src/MY_NRF24.c **** // 45. Test if a signal carrier exists (=> -64dB), only for NRF24L01+
 641:Drivers/NRF24L01/Src/MY_NRF24.c **** bool NRF24_testRPD(void) { return NRF24_read_register(REG_RPD) & 1; }
 2288              		.loc 1 641 26 is_stmt 1 view -0
 2289              		.cfi_startproc
 2290              		@ args = 0, pretend = 0, frame = 0
 2291              		@ frame_needed = 0, uses_anonymous_args = 0
 2292 0000 08B5     		push	{r3, lr}
 2293              	.LCFI54:
 2294              		.cfi_def_cfa_offset 8
 2295              		.cfi_offset 3, -8
 2296              		.cfi_offset 14, -4
 2297              		.loc 1 641 28 view .LVU484
 2298              		.loc 1 641 35 is_stmt 0 view .LVU485
 2299 0002 0920     		movs	r0, #9
 2300 0004 FFF7FEFF 		bl	NRF24_read_register
 2301              	.LVL209:
 2302              		.loc 1 641 69 view .LVU486
 2303 0008 00F00100 		and	r0, r0, #1
 2304 000c 08BD     		pop	{r3, pc}
 2305              		.cfi_endproc
 2306              	.LFE121:
 2308              		.section	.text.NRF24_resetStatus,"ax",%progbits
 2309              		.align	1
 2310              		.global	NRF24_resetStatus
 2311              		.syntax unified
 2312              		.thumb
 2313              		.thumb_func
 2315              	NRF24_resetStatus:
 2316              	.LFB122:
 642:Drivers/NRF24L01/Src/MY_NRF24.c **** 
 643:Drivers/NRF24L01/Src/MY_NRF24.c **** // 46. Reset Status
ARM GAS  C:\Users\sangt\AppData\Local\Temp\cc5NRPvh.s 			page 53


 644:Drivers/NRF24L01/Src/MY_NRF24.c **** void NRF24_resetStatus(void) {
 2317              		.loc 1 644 30 is_stmt 1 view -0
 2318              		.cfi_startproc
 2319              		@ args = 0, pretend = 0, frame = 0
 2320              		@ frame_needed = 0, uses_anonymous_args = 0
 2321 0000 08B5     		push	{r3, lr}
 2322              	.LCFI55:
 2323              		.cfi_def_cfa_offset 8
 2324              		.cfi_offset 3, -8
 2325              		.cfi_offset 14, -4
 645:Drivers/NRF24L01/Src/MY_NRF24.c ****     NRF24_write_register(REG_STATUS,
 2326              		.loc 1 645 5 view .LVU488
 2327 0002 7021     		movs	r1, #112
 2328 0004 0720     		movs	r0, #7
 2329 0006 FFF7FEFF 		bl	NRF24_write_register
 2330              	.LVL210:
 646:Drivers/NRF24L01/Src/MY_NRF24.c ****                          _BV(BIT_RX_DR) | _BV(BIT_TX_DS) | _BV(BIT_MAX_RT));
 647:Drivers/NRF24L01/Src/MY_NRF24.c **** }
 2331              		.loc 1 647 1 is_stmt 0 view .LVU489
 2332 000a 08BD     		pop	{r3, pc}
 2333              		.cfi_endproc
 2334              	.LFE122:
 2336              		.section	.text.NRF24_write,"ax",%progbits
 2337              		.align	1
 2338              		.global	NRF24_write
 2339              		.syntax unified
 2340              		.thumb
 2341              		.thumb_func
 2343              	NRF24_write:
 2344              	.LVL211:
 2345              	.LFB90:
 276:Drivers/NRF24L01/Src/MY_NRF24.c ****     bool retStatus;
 2346              		.loc 1 276 48 is_stmt 1 view -0
 2347              		.cfi_startproc
 2348              		@ args = 0, pretend = 0, frame = 8
 2349              		@ frame_needed = 0, uses_anonymous_args = 0
 276:Drivers/NRF24L01/Src/MY_NRF24.c ****     bool retStatus;
 2350              		.loc 1 276 48 is_stmt 0 view .LVU491
 2351 0000 30B5     		push	{r4, r5, lr}
 2352              	.LCFI56:
 2353              		.cfi_def_cfa_offset 12
 2354              		.cfi_offset 4, -12
 2355              		.cfi_offset 5, -8
 2356              		.cfi_offset 14, -4
 2357 0002 83B0     		sub	sp, sp, #12
 2358              	.LCFI57:
 2359              		.cfi_def_cfa_offset 24
 2360 0004 0446     		mov	r4, r0
 2361 0006 0D46     		mov	r5, r1
 277:Drivers/NRF24L01/Src/MY_NRF24.c ****     // Start writing
 2362              		.loc 1 277 5 is_stmt 1 view .LVU492
 279:Drivers/NRF24L01/Src/MY_NRF24.c ****     NRF24_startWrite(buf, len);
 2363              		.loc 1 279 5 view .LVU493
 2364 0008 FFF7FEFF 		bl	NRF24_resetStatus
 2365              	.LVL212:
 280:Drivers/NRF24L01/Src/MY_NRF24.c ****     // Data monitor
 2366              		.loc 1 280 5 view .LVU494
ARM GAS  C:\Users\sangt\AppData\Local\Temp\cc5NRPvh.s 			page 54


 2367 000c 2946     		mov	r1, r5
 2368 000e 2046     		mov	r0, r4
 2369 0010 FFF7FEFF 		bl	NRF24_startWrite
 2370              	.LVL213:
 282:Drivers/NRF24L01/Src/MY_NRF24.c ****     uint8_t status;
 2371              		.loc 1 282 5 view .LVU495
 283:Drivers/NRF24L01/Src/MY_NRF24.c ****     uint32_t sent_at = HAL_GetTick();
 2372              		.loc 1 283 5 view .LVU496
 284:Drivers/NRF24L01/Src/MY_NRF24.c ****     const uint32_t timeout = 10;  // ms to wait for timeout
 2373              		.loc 1 284 5 view .LVU497
 284:Drivers/NRF24L01/Src/MY_NRF24.c ****     const uint32_t timeout = 10;  // ms to wait for timeout
 2374              		.loc 1 284 24 is_stmt 0 view .LVU498
 2375 0014 FFF7FEFF 		bl	HAL_GetTick
 2376              	.LVL214:
 2377 0018 0446     		mov	r4, r0
 2378              	.LVL215:
 285:Drivers/NRF24L01/Src/MY_NRF24.c ****     do {
 2379              		.loc 1 285 5 is_stmt 1 view .LVU499
 2380              	.L174:
 286:Drivers/NRF24L01/Src/MY_NRF24.c ****         NRF24_read_registerN(REG_OBSERVE_TX, &observe_tx, 1);
 2381              		.loc 1 286 5 view .LVU500
 287:Drivers/NRF24L01/Src/MY_NRF24.c ****         // Get status register
 2382              		.loc 1 287 9 view .LVU501
 2383 001a 0122     		movs	r2, #1
 2384 001c 0DF10701 		add	r1, sp, #7
 2385 0020 0820     		movs	r0, #8
 2386 0022 FFF7FEFF 		bl	NRF24_read_registerN
 2387              	.LVL216:
 289:Drivers/NRF24L01/Src/MY_NRF24.c ****     } while (!(status & (_BV(BIT_TX_DS) | _BV(BIT_MAX_RT))) &&
 2388              		.loc 1 289 9 view .LVU502
 289:Drivers/NRF24L01/Src/MY_NRF24.c ****     } while (!(status & (_BV(BIT_TX_DS) | _BV(BIT_MAX_RT))) &&
 2389              		.loc 1 289 18 is_stmt 0 view .LVU503
 2390 0026 FFF7FEFF 		bl	NRF24_get_status
 2391              	.LVL217:
 290:Drivers/NRF24L01/Src/MY_NRF24.c ****              (HAL_GetTick() - sent_at < timeout));
 2392              		.loc 1 290 13 is_stmt 1 view .LVU504
 291:Drivers/NRF24L01/Src/MY_NRF24.c **** 
 2393              		.loc 1 291 14 is_stmt 0 view .LVU505
 2394 002a 10F0300F 		tst	r0, #48
 2395 002e 04D1     		bne	.L173
 291:Drivers/NRF24L01/Src/MY_NRF24.c **** 
 2396              		.loc 1 291 15 discriminator 1 view .LVU506
 2397 0030 FFF7FEFF 		bl	HAL_GetTick
 2398              	.LVL218:
 291:Drivers/NRF24L01/Src/MY_NRF24.c **** 
 2399              		.loc 1 291 29 discriminator 1 view .LVU507
 2400 0034 001B     		subs	r0, r0, r4
 290:Drivers/NRF24L01/Src/MY_NRF24.c ****              (HAL_GetTick() - sent_at < timeout));
 2401              		.loc 1 290 61 discriminator 1 view .LVU508
 2402 0036 0928     		cmp	r0, #9
 2403 0038 EFD9     		bls	.L174
 2404              	.L173:
 296:Drivers/NRF24L01/Src/MY_NRF24.c ****     NRF24_whatHappened(&tx_ok, &tx_fail, &ack_payload_available);
 2405              		.loc 1 296 5 is_stmt 1 view .LVU509
 297:Drivers/NRF24L01/Src/MY_NRF24.c ****     retStatus = tx_ok;
 2406              		.loc 1 297 5 view .LVU510
 2407 003a 0C4C     		ldr	r4, .L178
ARM GAS  C:\Users\sangt\AppData\Local\Temp\cc5NRPvh.s 			page 55


 2408              	.LVL219:
 297:Drivers/NRF24L01/Src/MY_NRF24.c ****     retStatus = tx_ok;
 2409              		.loc 1 297 5 is_stmt 0 view .LVU511
 2410 003c 2246     		mov	r2, r4
 2411 003e 0DF10501 		add	r1, sp, #5
 2412 0042 0DF10600 		add	r0, sp, #6
 2413 0046 FFF7FEFF 		bl	NRF24_whatHappened
 2414              	.LVL220:
 298:Drivers/NRF24L01/Src/MY_NRF24.c ****     if (ack_payload_available) {
 2415              		.loc 1 298 5 is_stmt 1 view .LVU512
 298:Drivers/NRF24L01/Src/MY_NRF24.c ****     if (ack_payload_available) {
 2416              		.loc 1 298 15 is_stmt 0 view .LVU513
 2417 004a 9DF80650 		ldrb	r5, [sp, #6]	@ zero_extendqisi2
 2418              	.LVL221:
 299:Drivers/NRF24L01/Src/MY_NRF24.c ****         ack_payload_length = NRF24_getDynamicPayloadSize();
 2419              		.loc 1 299 5 is_stmt 1 view .LVU514
 299:Drivers/NRF24L01/Src/MY_NRF24.c ****         ack_payload_length = NRF24_getDynamicPayloadSize();
 2420              		.loc 1 299 9 is_stmt 0 view .LVU515
 2421 004e 2378     		ldrb	r3, [r4]	@ zero_extendqisi2
 299:Drivers/NRF24L01/Src/MY_NRF24.c ****         ack_payload_length = NRF24_getDynamicPayloadSize();
 2422              		.loc 1 299 8 view .LVU516
 2423 0050 33B9     		cbnz	r3, .L177
 2424              	.L175:
 304:Drivers/NRF24L01/Src/MY_NRF24.c ****     NRF24_flush_tx();
 2425              		.loc 1 304 5 is_stmt 1 view .LVU517
 2426 0052 FFF7FEFF 		bl	NRF24_available
 2427              	.LVL222:
 305:Drivers/NRF24L01/Src/MY_NRF24.c ****     return retStatus;
 2428              		.loc 1 305 5 view .LVU518
 2429 0056 FFF7FEFF 		bl	NRF24_flush_tx
 2430              	.LVL223:
 306:Drivers/NRF24L01/Src/MY_NRF24.c **** }
 2431              		.loc 1 306 5 view .LVU519
 307:Drivers/NRF24L01/Src/MY_NRF24.c **** // 16. Check for available data to read
 2432              		.loc 1 307 1 is_stmt 0 view .LVU520
 2433 005a 2846     		mov	r0, r5
 2434 005c 03B0     		add	sp, sp, #12
 2435              	.LCFI58:
 2436              		.cfi_remember_state
 2437              		.cfi_def_cfa_offset 12
 2438              		@ sp needed
 2439 005e 30BD     		pop	{r4, r5, pc}
 2440              	.LVL224:
 2441              	.L177:
 2442              	.LCFI59:
 2443              		.cfi_restore_state
 300:Drivers/NRF24L01/Src/MY_NRF24.c ****     }
 2444              		.loc 1 300 9 is_stmt 1 view .LVU521
 300:Drivers/NRF24L01/Src/MY_NRF24.c ****     }
 2445              		.loc 1 300 30 is_stmt 0 view .LVU522
 2446 0060 FFF7FEFF 		bl	NRF24_getDynamicPayloadSize
 2447              	.LVL225:
 300:Drivers/NRF24L01/Src/MY_NRF24.c ****     }
 2448              		.loc 1 300 28 view .LVU523
 2449 0064 024B     		ldr	r3, .L178+4
 2450 0066 1870     		strb	r0, [r3]
 2451 0068 F3E7     		b	.L175
ARM GAS  C:\Users\sangt\AppData\Local\Temp\cc5NRPvh.s 			page 56


 2452              	.L179:
 2453 006a 00BF     		.align	2
 2454              	.L178:
 2455 006c 00000000 		.word	.LANCHOR10
 2456 0070 00000000 		.word	.LANCHOR11
 2457              		.cfi_endproc
 2458              	.LFE90:
 2460              		.section	.text.NRF24_ACTIVATE_cmd,"ax",%progbits
 2461              		.align	1
 2462              		.global	NRF24_ACTIVATE_cmd
 2463              		.syntax unified
 2464              		.thumb
 2465              		.thumb_func
 2467              	NRF24_ACTIVATE_cmd:
 2468              	.LFB123:
 648:Drivers/NRF24L01/Src/MY_NRF24.c **** 
 649:Drivers/NRF24L01/Src/MY_NRF24.c **** // 47. ACTIVATE cmd
 650:Drivers/NRF24L01/Src/MY_NRF24.c **** void NRF24_ACTIVATE_cmd(void) {
 2469              		.loc 1 650 31 is_stmt 1 view -0
 2470              		.cfi_startproc
 2471              		@ args = 0, pretend = 0, frame = 8
 2472              		@ frame_needed = 0, uses_anonymous_args = 0
 2473 0000 00B5     		push	{lr}
 2474              	.LCFI60:
 2475              		.cfi_def_cfa_offset 4
 2476              		.cfi_offset 14, -4
 2477 0002 83B0     		sub	sp, sp, #12
 2478              	.LCFI61:
 2479              		.cfi_def_cfa_offset 16
 651:Drivers/NRF24L01/Src/MY_NRF24.c ****     uint8_t cmdRxBuf[2];
 2480              		.loc 1 651 5 view .LVU525
 652:Drivers/NRF24L01/Src/MY_NRF24.c ****     // Read data from Rx payload buffer
 653:Drivers/NRF24L01/Src/MY_NRF24.c ****     NRF24_csn(0);
 2481              		.loc 1 653 5 view .LVU526
 2482 0004 0020     		movs	r0, #0
 2483 0006 FFF7FEFF 		bl	NRF24_csn
 2484              	.LVL226:
 654:Drivers/NRF24L01/Src/MY_NRF24.c ****     cmdRxBuf[0] = CMD_ACTIVATE;
 2485              		.loc 1 654 5 view .LVU527
 2486              		.loc 1 654 17 is_stmt 0 view .LVU528
 2487 000a 5023     		movs	r3, #80
 2488 000c 8DF80430 		strb	r3, [sp, #4]
 655:Drivers/NRF24L01/Src/MY_NRF24.c ****     cmdRxBuf[1] = 0x73;
 2489              		.loc 1 655 5 is_stmt 1 view .LVU529
 2490              		.loc 1 655 17 is_stmt 0 view .LVU530
 2491 0010 7323     		movs	r3, #115
 2492 0012 8DF80530 		strb	r3, [sp, #5]
 656:Drivers/NRF24L01/Src/MY_NRF24.c ****     HAL_SPI_Transmit(&nrf24_hspi, cmdRxBuf, 2, 100);
 2493              		.loc 1 656 5 is_stmt 1 view .LVU531
 2494 0016 6423     		movs	r3, #100
 2495 0018 0222     		movs	r2, #2
 2496 001a 01A9     		add	r1, sp, #4
 2497 001c 0448     		ldr	r0, .L182
 2498 001e FFF7FEFF 		bl	HAL_SPI_Transmit
 2499              	.LVL227:
 657:Drivers/NRF24L01/Src/MY_NRF24.c ****     NRF24_csn(1);
 2500              		.loc 1 657 5 view .LVU532
ARM GAS  C:\Users\sangt\AppData\Local\Temp\cc5NRPvh.s 			page 57


 2501 0022 0120     		movs	r0, #1
 2502 0024 FFF7FEFF 		bl	NRF24_csn
 2503              	.LVL228:
 658:Drivers/NRF24L01/Src/MY_NRF24.c **** }
 2504              		.loc 1 658 1 is_stmt 0 view .LVU533
 2505 0028 03B0     		add	sp, sp, #12
 2506              	.LCFI62:
 2507              		.cfi_def_cfa_offset 4
 2508              		@ sp needed
 2509 002a 5DF804FB 		ldr	pc, [sp], #4
 2510              	.L183:
 2511 002e 00BF     		.align	2
 2512              	.L182:
 2513 0030 00000000 		.word	.LANCHOR3
 2514              		.cfi_endproc
 2515              	.LFE123:
 2517              		.section	.text.NRF24_enableAckPayload,"ax",%progbits
 2518              		.align	1
 2519              		.global	NRF24_enableAckPayload
 2520              		.syntax unified
 2521              		.thumb
 2522              		.thumb_func
 2524              	NRF24_enableAckPayload:
 2525              	.LFB100:
 370:Drivers/NRF24L01/Src/MY_NRF24.c ****     // Need to enable dynamic payload and Ack payload together
 2526              		.loc 1 370 35 is_stmt 1 view -0
 2527              		.cfi_startproc
 2528              		@ args = 0, pretend = 0, frame = 0
 2529              		@ frame_needed = 0, uses_anonymous_args = 0
 2530 0000 08B5     		push	{r3, lr}
 2531              	.LCFI63:
 2532              		.cfi_def_cfa_offset 8
 2533              		.cfi_offset 3, -8
 2534              		.cfi_offset 14, -4
 372:Drivers/NRF24L01/Src/MY_NRF24.c ****                                           _BV(BIT_EN_ACK_PAY) |
 2535              		.loc 1 372 5 view .LVU535
 372:Drivers/NRF24L01/Src/MY_NRF24.c ****                                           _BV(BIT_EN_ACK_PAY) |
 2536              		.loc 1 372 39 is_stmt 0 view .LVU536
 2537 0002 1D20     		movs	r0, #29
 2538 0004 FFF7FEFF 		bl	NRF24_read_register
 2539              	.LVL229:
 372:Drivers/NRF24L01/Src/MY_NRF24.c ****                                           _BV(BIT_EN_ACK_PAY) |
 2540              		.loc 1 372 5 view .LVU537
 2541 0008 40F00601 		orr	r1, r0, #6
 2542 000c C9B2     		uxtb	r1, r1
 2543 000e 1D20     		movs	r0, #29
 2544 0010 FFF7FEFF 		bl	NRF24_write_register
 2545              	.LVL230:
 375:Drivers/NRF24L01/Src/MY_NRF24.c ****         NRF24_ACTIVATE_cmd();
 2546              		.loc 1 375 5 is_stmt 1 view .LVU538
 375:Drivers/NRF24L01/Src/MY_NRF24.c ****         NRF24_ACTIVATE_cmd();
 2547              		.loc 1 375 10 is_stmt 0 view .LVU539
 2548 0014 1D20     		movs	r0, #29
 2549 0016 FFF7FEFF 		bl	NRF24_read_register
 2550              	.LVL231:
 375:Drivers/NRF24L01/Src/MY_NRF24.c ****         NRF24_ACTIVATE_cmd();
 2551              		.loc 1 375 8 view .LVU540
ARM GAS  C:\Users\sangt\AppData\Local\Temp\cc5NRPvh.s 			page 58


 2552 001a 48B1     		cbz	r0, .L187
 2553              	.L185:
 382:Drivers/NRF24L01/Src/MY_NRF24.c ****                                         _BV(BIT_DPL_P1) | _BV(BIT_DPL_P0));
 2554              		.loc 1 382 5 is_stmt 1 view .LVU541
 382:Drivers/NRF24L01/Src/MY_NRF24.c ****                                         _BV(BIT_DPL_P1) | _BV(BIT_DPL_P0));
 2555              		.loc 1 382 37 is_stmt 0 view .LVU542
 2556 001c 1C20     		movs	r0, #28
 2557 001e FFF7FEFF 		bl	NRF24_read_register
 2558              	.LVL232:
 382:Drivers/NRF24L01/Src/MY_NRF24.c ****                                         _BV(BIT_DPL_P1) | _BV(BIT_DPL_P0));
 2559              		.loc 1 382 5 view .LVU543
 2560 0022 40F00301 		orr	r1, r0, #3
 2561 0026 C9B2     		uxtb	r1, r1
 2562 0028 1C20     		movs	r0, #28
 2563 002a FFF7FEFF 		bl	NRF24_write_register
 2564              	.LVL233:
 384:Drivers/NRF24L01/Src/MY_NRF24.c **** // 26. Enable dynamic payloads
 2565              		.loc 1 384 1 view .LVU544
 2566 002e 08BD     		pop	{r3, pc}
 2567              	.L187:
 376:Drivers/NRF24L01/Src/MY_NRF24.c ****         NRF24_write_register(REG_FEATURE, NRF24_read_register(REG_FEATURE) |
 2568              		.loc 1 376 9 is_stmt 1 view .LVU545
 2569 0030 FFF7FEFF 		bl	NRF24_ACTIVATE_cmd
 2570              	.LVL234:
 377:Drivers/NRF24L01/Src/MY_NRF24.c ****                                               _BV(BIT_EN_ACK_PAY) |
 2571              		.loc 1 377 9 view .LVU546
 377:Drivers/NRF24L01/Src/MY_NRF24.c ****                                               _BV(BIT_EN_ACK_PAY) |
 2572              		.loc 1 377 43 is_stmt 0 view .LVU547
 2573 0034 1D20     		movs	r0, #29
 2574 0036 FFF7FEFF 		bl	NRF24_read_register
 2575              	.LVL235:
 377:Drivers/NRF24L01/Src/MY_NRF24.c ****                                               _BV(BIT_EN_ACK_PAY) |
 2576              		.loc 1 377 9 view .LVU548
 2577 003a 40F00601 		orr	r1, r0, #6
 2578 003e C9B2     		uxtb	r1, r1
 2579 0040 1D20     		movs	r0, #29
 2580 0042 FFF7FEFF 		bl	NRF24_write_register
 2581              	.LVL236:
 2582 0046 E9E7     		b	.L185
 2583              		.cfi_endproc
 2584              	.LFE100:
 2586              		.section	.text.NRF24_enableDynamicPayloads,"ax",%progbits
 2587              		.align	1
 2588              		.global	NRF24_enableDynamicPayloads
 2589              		.syntax unified
 2590              		.thumb
 2591              		.thumb_func
 2593              	NRF24_enableDynamicPayloads:
 2594              	.LFB101:
 386:Drivers/NRF24L01/Src/MY_NRF24.c ****     // Enable dynamic payload through FEATURE register
 2595              		.loc 1 386 40 is_stmt 1 view -0
 2596              		.cfi_startproc
 2597              		@ args = 0, pretend = 0, frame = 0
 2598              		@ frame_needed = 0, uses_anonymous_args = 0
 2599 0000 08B5     		push	{r3, lr}
 2600              	.LCFI64:
 2601              		.cfi_def_cfa_offset 8
ARM GAS  C:\Users\sangt\AppData\Local\Temp\cc5NRPvh.s 			page 59


 2602              		.cfi_offset 3, -8
 2603              		.cfi_offset 14, -4
 388:Drivers/NRF24L01/Src/MY_NRF24.c ****                          NRF24_read_register(REG_FEATURE) | _BV(BIT_EN_DPL));
 2604              		.loc 1 388 5 view .LVU550
 389:Drivers/NRF24L01/Src/MY_NRF24.c ****     if (!NRF24_read_register(REG_FEATURE)) {
 2605              		.loc 1 389 26 is_stmt 0 view .LVU551
 2606 0002 1D20     		movs	r0, #29
 2607 0004 FFF7FEFF 		bl	NRF24_read_register
 2608              	.LVL237:
 388:Drivers/NRF24L01/Src/MY_NRF24.c ****                          NRF24_read_register(REG_FEATURE) | _BV(BIT_EN_DPL));
 2609              		.loc 1 388 5 view .LVU552
 2610 0008 40F00401 		orr	r1, r0, #4
 2611 000c C9B2     		uxtb	r1, r1
 2612 000e 1D20     		movs	r0, #29
 2613 0010 FFF7FEFF 		bl	NRF24_write_register
 2614              	.LVL238:
 390:Drivers/NRF24L01/Src/MY_NRF24.c ****         NRF24_ACTIVATE_cmd();
 2615              		.loc 1 390 5 is_stmt 1 view .LVU553
 390:Drivers/NRF24L01/Src/MY_NRF24.c ****         NRF24_ACTIVATE_cmd();
 2616              		.loc 1 390 10 is_stmt 0 view .LVU554
 2617 0014 1D20     		movs	r0, #29
 2618 0016 FFF7FEFF 		bl	NRF24_read_register
 2619              	.LVL239:
 390:Drivers/NRF24L01/Src/MY_NRF24.c ****         NRF24_ACTIVATE_cmd();
 2620              		.loc 1 390 8 view .LVU555
 2621 001a 60B1     		cbz	r0, .L191
 2622              	.L189:
 396:Drivers/NRF24L01/Src/MY_NRF24.c ****                                         _BV(BIT_DPL_P5) | _BV(BIT_DPL_P4) |
 2623              		.loc 1 396 5 is_stmt 1 view .LVU556
 396:Drivers/NRF24L01/Src/MY_NRF24.c ****                                         _BV(BIT_DPL_P5) | _BV(BIT_DPL_P4) |
 2624              		.loc 1 396 37 is_stmt 0 view .LVU557
 2625 001c 1C20     		movs	r0, #28
 2626 001e FFF7FEFF 		bl	NRF24_read_register
 2627              	.LVL240:
 396:Drivers/NRF24L01/Src/MY_NRF24.c ****                                         _BV(BIT_DPL_P5) | _BV(BIT_DPL_P4) |
 2628              		.loc 1 396 5 view .LVU558
 2629 0022 40F03F01 		orr	r1, r0, #63
 2630 0026 C9B2     		uxtb	r1, r1
 2631 0028 1C20     		movs	r0, #28
 2632 002a FFF7FEFF 		bl	NRF24_write_register
 2633              	.LVL241:
 400:Drivers/NRF24L01/Src/MY_NRF24.c **** }
 2634              		.loc 1 400 5 is_stmt 1 view .LVU559
 400:Drivers/NRF24L01/Src/MY_NRF24.c **** }
 2635              		.loc 1 400 30 is_stmt 0 view .LVU560
 2636 002e 084B     		ldr	r3, .L192
 2637 0030 0122     		movs	r2, #1
 2638 0032 1A70     		strb	r2, [r3]
 401:Drivers/NRF24L01/Src/MY_NRF24.c **** void NRF24_disableDynamicPayloads(void) {
 2639              		.loc 1 401 1 view .LVU561
 2640 0034 08BD     		pop	{r3, pc}
 2641              	.L191:
 391:Drivers/NRF24L01/Src/MY_NRF24.c ****         NRF24_write_register(
 2642              		.loc 1 391 9 is_stmt 1 view .LVU562
 2643 0036 FFF7FEFF 		bl	NRF24_ACTIVATE_cmd
 2644              	.LVL242:
 392:Drivers/NRF24L01/Src/MY_NRF24.c ****             REG_FEATURE, NRF24_read_register(REG_FEATURE) | _BV(BIT_EN_DPL));
ARM GAS  C:\Users\sangt\AppData\Local\Temp\cc5NRPvh.s 			page 60


 2645              		.loc 1 392 9 view .LVU563
 393:Drivers/NRF24L01/Src/MY_NRF24.c ****     }
 2646              		.loc 1 393 26 is_stmt 0 view .LVU564
 2647 003a 1D20     		movs	r0, #29
 2648 003c FFF7FEFF 		bl	NRF24_read_register
 2649              	.LVL243:
 392:Drivers/NRF24L01/Src/MY_NRF24.c ****             REG_FEATURE, NRF24_read_register(REG_FEATURE) | _BV(BIT_EN_DPL));
 2650              		.loc 1 392 9 view .LVU565
 2651 0040 40F00401 		orr	r1, r0, #4
 2652 0044 C9B2     		uxtb	r1, r1
 2653 0046 1D20     		movs	r0, #29
 2654 0048 FFF7FEFF 		bl	NRF24_write_register
 2655              	.LVL244:
 2656 004c E6E7     		b	.L189
 2657              	.L193:
 2658 004e 00BF     		.align	2
 2659              	.L192:
 2660 0050 00000000 		.word	.LANCHOR8
 2661              		.cfi_endproc
 2662              	.LFE101:
 2664              		.section	.text.NRF24_GetAckPayloadSize,"ax",%progbits
 2665              		.align	1
 2666              		.global	NRF24_GetAckPayloadSize
 2667              		.syntax unified
 2668              		.thumb
 2669              		.thumb_func
 2671              	NRF24_GetAckPayloadSize:
 2672              	.LFB124:
 659:Drivers/NRF24L01/Src/MY_NRF24.c **** // 48. Get AckPayload Size
 660:Drivers/NRF24L01/Src/MY_NRF24.c **** uint8_t NRF24_GetAckPayloadSize(void) { return ack_payload_length; }
 2673              		.loc 1 660 39 is_stmt 1 view -0
 2674              		.cfi_startproc
 2675              		@ args = 0, pretend = 0, frame = 0
 2676              		@ frame_needed = 0, uses_anonymous_args = 0
 2677              		@ link register save eliminated.
 2678              		.loc 1 660 41 view .LVU567
 2679              		.loc 1 660 68 is_stmt 0 view .LVU568
 2680 0000 014B     		ldr	r3, .L195
 2681 0002 1878     		ldrb	r0, [r3]	@ zero_extendqisi2
 2682 0004 7047     		bx	lr
 2683              	.L196:
 2684 0006 00BF     		.align	2
 2685              	.L195:
 2686 0008 00000000 		.word	.LANCHOR11
 2687              		.cfi_endproc
 2688              	.LFE124:
 2690              		.section	.rodata.printRadioSettings.str1.4,"aMS",%progbits,1
 2691              		.align	2
 2692              	.LC0:
 2693 0000 0D0A2A2A 		.ascii	"\015\012*******************************************"
 2693      2A2A2A2A 
 2693      2A2A2A2A 
 2693      2A2A2A2A 
 2693      2A2A2A2A 
 2694 002d 2A2A2A0D 		.ascii	"***\015\012\000"
 2694      0A00
 2695 0033 00       		.align	2
ARM GAS  C:\Users\sangt\AppData\Local\Temp\cc5NRPvh.s 			page 61


 2696              	.LC1:
 2697 0034 4352433A 		.ascii	"CRC:\015\012\011\011Enabled, 2 Bytes \015\012\000"
 2697      0D0A0909 
 2697      456E6162 
 2697      6C65642C 
 2697      20322042 
 2698              		.align	2
 2699              	.LC2:
 2700 0050 4352433A 		.ascii	"CRC:\015\012\011\011Enabled, 1 Byte \015\012\000"
 2700      0D0A0909 
 2700      456E6162 
 2700      6C65642C 
 2700      20312042 
 2701 006b 00       		.align	2
 2702              	.LC3:
 2703 006c 4352433A 		.ascii	"CRC:\015\012\011\011Disabled \015\012\000"
 2703      0D0A0909 
 2703      44697361 
 2703      626C6564 
 2703      200D0A00 
 2704              		.align	2
 2705              	.LC4:
 2706 0080 454E4141 		.ascii	"ENAA:\015\012\011\011P0:\011%d\015\012\011\011P1:\011"
 2706      3A0D0A09 
 2706      0950303A 
 2706      0925640D 
 2706      0A090950 
 2707 0097 25640D0A 		.ascii	"%d\015\012\011\011P2:\011%d\015\012\011\011P3:\011%"
 2707      09095032 
 2707      3A092564 
 2707      0D0A0909 
 2707      50333A09 
 2708 00ac 640D0A09 		.ascii	"d\015\012\011\011P4:\011%d\015\012\011\011P5:\011%d"
 2708      0950343A 
 2708      0925640D 
 2708      0A090950 
 2708      353A0925 
 2709 00c1 0D0A00   		.ascii	"\015\012\000"
 2710              		.align	2
 2711              	.LC5:
 2712 00c4 454E5F52 		.ascii	"EN_RXADDR:\015\012\011\011P0:\011%d\015\012\011\011"
 2712      58414444 
 2712      523A0D0A 
 2712      09095030 
 2712      3A092564 
 2713 00dc 50313A09 		.ascii	"P1:\011%d\015\012\011\011P2:\011%d\015\012\011\011P"
 2713      25640D0A 
 2713      09095032 
 2713      3A092564 
 2713      0D0A0909 
 2714 00f1 333A0925 		.ascii	"3:\011%d\015\012\011\011P4:\011%d\015\012\011\011P5"
 2714      640D0A09 
 2714      0950343A 
 2714      0925640D 
 2714      0A090950 
 2715 0106 3A092564 		.ascii	":\011%d\015\012\000"
 2715      0D0A00
ARM GAS  C:\Users\sangt\AppData\Local\Temp\cc5NRPvh.s 			page 62


 2716 010d 000000   		.align	2
 2717              	.LC6:
 2718 0110 53455455 		.ascii	"SETUP_AW:\015\012\011\011%d bytes \015\012\000"
 2718      505F4157 
 2718      3A0D0A09 
 2718      09256420 
 2718      62797465 
 2719 0129 000000   		.align	2
 2720              	.LC7:
 2721 012c 52465F43 		.ascii	"RF_CH:\015\012\011\011%d CH \015\012\000"
 2721      483A0D0A 
 2721      09092564 
 2721      20434820 
 2721      0D0A00
 2722 013f 00       		.align	2
 2723              	.LC8:
 2724 0140 44617461 		.ascii	"Data Rate:\015\012\011\0112Mbps \015\012\000"
 2724      20526174 
 2724      653A0D0A 
 2724      0909324D 
 2724      62707320 
 2725 0157 00       		.align	2
 2726              	.LC9:
 2727 0158 44617461 		.ascii	"Data Rate:\015\012\011\0111Mbps \015\012\000"
 2727      20526174 
 2727      653A0D0A 
 2727      0909314D 
 2727      62707320 
 2728 016f 00       		.align	2
 2729              	.LC10:
 2730 0170 52465F50 		.ascii	"RF_PWR:\015\012\011\011-18dB \015\012\000"
 2730      57523A0D 
 2730      0A09092D 
 2730      31386442 
 2730      200D0A00 
 2731              		.align	2
 2732              	.LC11:
 2733 0184 52465F50 		.ascii	"RF_PWR:\015\012\011\011-12dB \015\012\000"
 2733      57523A0D 
 2733      0A09092D 
 2733      31326442 
 2733      200D0A00 
 2734              		.align	2
 2735              	.LC12:
 2736 0198 52465F50 		.ascii	"RF_PWR:\015\012\011\011-6dB \015\012\000"
 2736      57523A0D 
 2736      0A09092D 
 2736      36644220 
 2736      0D0A00
 2737 01ab 00       		.align	2
 2738              	.LC13:
 2739 01ac 52465F50 		.ascii	"RF_PWR:\015\012\011\0110dB \015\012\000"
 2739      57523A0D 
 2739      0A090930 
 2739      6442200D 
 2739      0A00
 2740 01be 0000     		.align	2
ARM GAS  C:\Users\sangt\AppData\Local\Temp\cc5NRPvh.s 			page 63


 2741              	.LC14:
 2742 01c0 52585F50 		.ascii	"RX_Pipe0 Addrs:\015\012\011\011%02X,%02X,%02X,%02X,"
 2742      69706530 
 2742      20416464 
 2742      72733A0D 
 2742      0A090925 
 2743 01e7 25303258 		.ascii	"%02X  \015\012\000"
 2743      20200D0A 
 2743      00
 2744              		.align	2
 2745              	.LC15:
 2746 01f0 52585F50 		.ascii	"RX_Pipe1 Addrs:\015\012\011\011%02X,%02X,%02X,%02X,"
 2746      69706531 
 2746      20416464 
 2746      72733A0D 
 2746      0A090925 
 2747 0217 25303258 		.ascii	"%02X  \015\012\000"
 2747      20200D0A 
 2747      00
 2748              		.align	2
 2749              	.LC16:
 2750 0220 52585F50 		.ascii	"RX_Pipe2 Addrs:\015\012\011\011xx,xx,xx,xx,%02X  \015"
 2750      69706532 
 2750      20416464 
 2750      72733A0D 
 2750      0A090978 
 2751 0246 0A00     		.ascii	"\012\000"
 2752              		.align	2
 2753              	.LC17:
 2754 0248 52585F50 		.ascii	"RX_Pipe3 Addrs:\015\012\011\011xx,xx,xx,xx,%02X  \015"
 2754      69706533 
 2754      20416464 
 2754      72733A0D 
 2754      0A090978 
 2755 026e 0A00     		.ascii	"\012\000"
 2756              		.align	2
 2757              	.LC18:
 2758 0270 52585F50 		.ascii	"RX_Pipe4 Addrs:\015\012\011\011xx,xx,xx,xx,%02X  \015"
 2758      69706534 
 2758      20416464 
 2758      72733A0D 
 2758      0A090978 
 2759 0296 0A00     		.ascii	"\012\000"
 2760              		.align	2
 2761              	.LC19:
 2762 0298 52585F50 		.ascii	"RX_Pipe5 Addrs:\015\012\011\011xx,xx,xx,xx,%02X  \015"
 2762      69706535 
 2762      20416464 
 2762      72733A0D 
 2762      0A090978 
 2763 02be 0A00     		.ascii	"\012\000"
 2764              		.align	2
 2765              	.LC20:
 2766 02c0 54582041 		.ascii	"TX Addrs:\015\012\011\011%02X,%02X,%02X,%02X,%02X  "
 2766      64647273 
 2766      3A0D0A09 
 2766      09253032 
ARM GAS  C:\Users\sangt\AppData\Local\Temp\cc5NRPvh.s 			page 64


 2766      582C2530 
 2767 02e7 0D0A00   		.ascii	"\015\012\000"
 2768 02ea 0000     		.align	2
 2769              	.LC21:
 2770 02ec 52585F50 		.ascii	"RX_PW_P0:\015\012\011\011%d bytes \015\012\000"
 2770      575F5030 
 2770      3A0D0A09 
 2770      09256420 
 2770      62797465 
 2771 0305 000000   		.align	2
 2772              	.LC22:
 2773 0308 52585F50 		.ascii	"RX_PW_P1:\015\012\011\011%d bytes \015\012\000"
 2773      575F5031 
 2773      3A0D0A09 
 2773      09256420 
 2773      62797465 
 2774 0321 000000   		.align	2
 2775              	.LC23:
 2776 0324 52585F50 		.ascii	"RX_PW_P2:\015\012\011\011%d bytes \015\012\000"
 2776      575F5032 
 2776      3A0D0A09 
 2776      09256420 
 2776      62797465 
 2777 033d 000000   		.align	2
 2778              	.LC24:
 2779 0340 52585F50 		.ascii	"RX_PW_P3:\015\012\011\011%d bytes \015\012\000"
 2779      575F5033 
 2779      3A0D0A09 
 2779      09256420 
 2779      62797465 
 2780 0359 000000   		.align	2
 2781              	.LC25:
 2782 035c 52585F50 		.ascii	"RX_PW_P4:\015\012\011\011%d bytes \015\012\000"
 2782      575F5034 
 2782      3A0D0A09 
 2782      09256420 
 2782      62797465 
 2783 0375 000000   		.align	2
 2784              	.LC26:
 2785 0378 52585F50 		.ascii	"RX_PW_P5:\015\012\011\011%d bytes \015\012\000"
 2785      575F5035 
 2785      3A0D0A09 
 2785      09256420 
 2785      62797465 
 2786 0391 000000   		.align	2
 2787              	.LC27:
 2788 0394 44594E50 		.ascii	"DYNPD_pipe:\015\012\011\011P0:\011%d\015\012\011\011"
 2788      445F7069 
 2788      70653A0D 
 2788      0A090950 
 2788      303A0925 
 2789 03ad 50313A09 		.ascii	"P1:\011%d\015\012\011\011P2:\011%d\015\012\011\011P"
 2789      25640D0A 
 2789      09095032 
 2789      3A092564 
 2789      0D0A0909 
 2790 03c2 333A0925 		.ascii	"3:\011%d\015\012\011\011P4:\011%d\015\012\011\011P5"
ARM GAS  C:\Users\sangt\AppData\Local\Temp\cc5NRPvh.s 			page 65


 2790      640D0A09 
 2790      0950343A 
 2790      0925640D 
 2790      0A090950 
 2791 03d7 3A092564 		.ascii	":\011%d\015\012\000"
 2791      0D0A00
 2792 03de 0000     		.align	2
 2793              	.LC28:
 2794 03e0 454E5F44 		.ascii	"EN_DPL:\015\012\011\011Enabled \015\012\000"
 2794      504C3A0D 
 2794      0A090945 
 2794      6E61626C 
 2794      6564200D 
 2795 03f6 0000     		.align	2
 2796              	.LC29:
 2797 03f8 454E5F44 		.ascii	"EN_DPL:\015\012\011\011Disabled \015\012\000"
 2797      504C3A0D 
 2797      0A090944 
 2797      69736162 
 2797      6C656420 
 2798 040f 00       		.align	2
 2799              	.LC30:
 2800 0410 454E5F41 		.ascii	"EN_ACK_PAY:\015\012\011\011Enabled \015\012\000"
 2800      434B5F50 
 2800      41593A0D 
 2800      0A090945 
 2800      6E61626C 
 2801 042a 0000     		.align	2
 2802              	.LC31:
 2803 042c 454E5F41 		.ascii	"EN_ACK_PAY:\015\012\011\011Disabled \015\012\000"
 2803      434B5F50 
 2803      41593A0D 
 2803      0A090944 
 2803      69736162 
 2804              		.section	.text.printRadioSettings,"ax",%progbits
 2805              		.align	1
 2806              		.global	printRadioSettings
 2807              		.syntax unified
 2808              		.thumb
 2809              		.thumb_func
 2811              	printRadioSettings:
 2812              	.LFB125:
 661:Drivers/NRF24L01/Src/MY_NRF24.c **** 
 662:Drivers/NRF24L01/Src/MY_NRF24.c **** void printRadioSettings(void) {
 2813              		.loc 1 662 31 is_stmt 1 view -0
 2814              		.cfi_startproc
 2815              		@ args = 0, pretend = 0, frame = 112
 2816              		@ frame_needed = 0, uses_anonymous_args = 0
 2817 0000 70B5     		push	{r4, r5, r6, lr}
 2818              	.LCFI65:
 2819              		.cfi_def_cfa_offset 16
 2820              		.cfi_offset 4, -16
 2821              		.cfi_offset 5, -12
 2822              		.cfi_offset 6, -8
 2823              		.cfi_offset 14, -4
 2824 0002 A0B0     		sub	sp, sp, #128
 2825              	.LCFI66:
ARM GAS  C:\Users\sangt\AppData\Local\Temp\cc5NRPvh.s 			page 66


 2826              		.cfi_def_cfa_offset 144
 663:Drivers/NRF24L01/Src/MY_NRF24.c ****     uint8_t reg8Val;
 2827              		.loc 1 663 5 view .LVU570
 664:Drivers/NRF24L01/Src/MY_NRF24.c ****     char uartTxBuf[100];
 2828              		.loc 1 664 5 view .LVU571
 665:Drivers/NRF24L01/Src/MY_NRF24.c ****     sprintf(uartTxBuf,
 2829              		.loc 1 665 5 view .LVU572
 2830 0004 0DF11C0C 		add	ip, sp, #28
 2831 0008 C44C     		ldr	r4, .L216
 2832 000a 0FCC     		ldmia	r4!, {r0, r1, r2, r3}
 2833 000c ACE80F00 		stmia	ip!, {r0, r1, r2, r3}
 2834 0010 0FCC     		ldmia	r4!, {r0, r1, r2, r3}
 2835 0012 ACE80F00 		stmia	ip!, {r0, r1, r2, r3}
 2836 0016 0FCC     		ldmia	r4!, {r0, r1, r2, r3}
 2837 0018 ACE80F00 		stmia	ip!, {r0, r1, r2, r3}
 2838 001c 2368     		ldr	r3, [r4]
 2839 001e 2CF8023B 		strh	r3, [ip], #2	@ movhi
 2840 0022 1B0C     		lsrs	r3, r3, #16
 2841 0024 8CF80030 		strb	r3, [ip]
 666:Drivers/NRF24L01/Src/MY_NRF24.c ****             "\r\n**********************************************\r\n");
 667:Drivers/NRF24L01/Src/MY_NRF24.c ****     HAL_UART_Transmit(&nrf24_huart, (uint8_t *)uartTxBuf, strlen(uartTxBuf),
 2842              		.loc 1 667 5 view .LVU573
 2843              		.loc 1 667 59 is_stmt 0 view .LVU574
 2844 0028 07A8     		add	r0, sp, #28
 2845 002a FFF7FEFF 		bl	strlen
 2846              	.LVL245:
 2847              		.loc 1 667 5 view .LVU575
 2848 002e 0A23     		movs	r3, #10
 2849 0030 82B2     		uxth	r2, r0
 2850 0032 07A9     		add	r1, sp, #28
 2851 0034 BA48     		ldr	r0, .L216+4
 2852 0036 FFF7FEFF 		bl	HAL_UART_Transmit
 2853              	.LVL246:
 668:Drivers/NRF24L01/Src/MY_NRF24.c ****                       10);
 669:Drivers/NRF24L01/Src/MY_NRF24.c ****     // a) Get CRC settings - Config Register
 670:Drivers/NRF24L01/Src/MY_NRF24.c ****     reg8Val = NRF24_read_register(0x00);
 2854              		.loc 1 670 5 is_stmt 1 view .LVU576
 2855              		.loc 1 670 15 is_stmt 0 view .LVU577
 2856 003a 0020     		movs	r0, #0
 2857 003c FFF7FEFF 		bl	NRF24_read_register
 2858              	.LVL247:
 671:Drivers/NRF24L01/Src/MY_NRF24.c ****     if (reg8Val & (1 << 3)) {
 2859              		.loc 1 671 5 is_stmt 1 view .LVU578
 2860              		.loc 1 671 8 is_stmt 0 view .LVU579
 2861 0040 10F0080F 		tst	r0, #8
 2862 0044 00F06782 		beq	.L198
 672:Drivers/NRF24L01/Src/MY_NRF24.c ****         if (reg8Val & (1 << 2))
 2863              		.loc 1 672 9 is_stmt 1 view .LVU580
 2864              		.loc 1 672 12 is_stmt 0 view .LVU581
 2865 0048 10F0040F 		tst	r0, #4
 2866 004c 00F05782 		beq	.L199
 673:Drivers/NRF24L01/Src/MY_NRF24.c ****             sprintf(uartTxBuf, "CRC:\r\n		Enabled, 2 Bytes \r\n");
 2867              		.loc 1 673 13 is_stmt 1 view .LVU582
 2868 0050 07AC     		add	r4, sp, #28
 2869 0052 B44D     		ldr	r5, .L216+8
 2870 0054 0FCD     		ldmia	r5!, {r0, r1, r2, r3}
 2871              	.LVL248:
ARM GAS  C:\Users\sangt\AppData\Local\Temp\cc5NRPvh.s 			page 67


 2872              		.loc 1 673 13 is_stmt 0 view .LVU583
 2873 0056 0FC4     		stmia	r4!, {r0, r1, r2, r3}
 2874 0058 95E80700 		ldm	r5, {r0, r1, r2}
 2875 005c 84E80700 		stm	r4, {r0, r1, r2}
 2876              	.L200:
 674:Drivers/NRF24L01/Src/MY_NRF24.c ****         else
 675:Drivers/NRF24L01/Src/MY_NRF24.c ****             sprintf(uartTxBuf, "CRC:\r\n		Enabled, 1 Byte \r\n");
 676:Drivers/NRF24L01/Src/MY_NRF24.c ****     } else {
 677:Drivers/NRF24L01/Src/MY_NRF24.c ****         sprintf(uartTxBuf, "CRC:\r\n		Disabled \r\n");
 678:Drivers/NRF24L01/Src/MY_NRF24.c ****     }
 679:Drivers/NRF24L01/Src/MY_NRF24.c ****     HAL_UART_Transmit(&nrf24_huart, (uint8_t *)uartTxBuf, strlen(uartTxBuf),
 2877              		.loc 1 679 5 is_stmt 1 view .LVU584
 2878              		.loc 1 679 59 is_stmt 0 view .LVU585
 2879 0060 07A8     		add	r0, sp, #28
 2880 0062 FFF7FEFF 		bl	strlen
 2881              	.LVL249:
 2882              		.loc 1 679 5 view .LVU586
 2883 0066 AE4C     		ldr	r4, .L216+4
 2884 0068 0A23     		movs	r3, #10
 2885 006a 82B2     		uxth	r2, r0
 2886 006c 07A9     		add	r1, sp, #28
 2887 006e 2046     		mov	r0, r4
 2888 0070 FFF7FEFF 		bl	HAL_UART_Transmit
 2889              	.LVL250:
 680:Drivers/NRF24L01/Src/MY_NRF24.c ****                       10);
 681:Drivers/NRF24L01/Src/MY_NRF24.c ****     // b) AutoAck on pipes
 682:Drivers/NRF24L01/Src/MY_NRF24.c ****     reg8Val = NRF24_read_register(0x01);
 2890              		.loc 1 682 5 is_stmt 1 view .LVU587
 2891              		.loc 1 682 15 is_stmt 0 view .LVU588
 2892 0074 0120     		movs	r0, #1
 2893 0076 FFF7FEFF 		bl	NRF24_read_register
 2894              	.LVL251:
 683:Drivers/NRF24L01/Src/MY_NRF24.c ****     sprintf(uartTxBuf,
 2895              		.loc 1 683 5 is_stmt 1 view .LVU589
 2896 007a C0F34013 		ubfx	r3, r0, #5, #1
 2897 007e 0393     		str	r3, [sp, #12]
 2898 0080 C0F30013 		ubfx	r3, r0, #4, #1
 2899 0084 0293     		str	r3, [sp, #8]
 2900 0086 C0F3C003 		ubfx	r3, r0, #3, #1
 2901 008a 0193     		str	r3, [sp, #4]
 2902 008c C0F38003 		ubfx	r3, r0, #2, #1
 2903 0090 0093     		str	r3, [sp]
 2904 0092 C0F34003 		ubfx	r3, r0, #1, #1
 2905 0096 00F00102 		and	r2, r0, #1
 2906 009a A349     		ldr	r1, .L216+12
 2907 009c 07A8     		add	r0, sp, #28
 2908              	.LVL252:
 2909              		.loc 1 683 5 is_stmt 0 view .LVU590
 2910 009e FFF7FEFF 		bl	sprintf
 2911              	.LVL253:
 684:Drivers/NRF24L01/Src/MY_NRF24.c ****             "ENAA:\r\n		P0:	%d\r\n		P1:	%d\r\n	"
 685:Drivers/NRF24L01/Src/MY_NRF24.c ****             "	P2:	%d\r\n		P3:	%d\r\n		P4:	"
 686:Drivers/NRF24L01/Src/MY_NRF24.c ****             "%d\r\n		P5:	%d\r\n",
 687:Drivers/NRF24L01/Src/MY_NRF24.c ****             _BOOL(reg8Val & (1 << 0)), _BOOL(reg8Val & (1 << 1)),
 688:Drivers/NRF24L01/Src/MY_NRF24.c ****             _BOOL(reg8Val & (1 << 2)), _BOOL(reg8Val & (1 << 3)),
 689:Drivers/NRF24L01/Src/MY_NRF24.c ****             _BOOL(reg8Val & (1 << 4)), _BOOL(reg8Val & (1 << 5)));
 690:Drivers/NRF24L01/Src/MY_NRF24.c ****     HAL_UART_Transmit(&nrf24_huart, (uint8_t *)uartTxBuf, strlen(uartTxBuf),
ARM GAS  C:\Users\sangt\AppData\Local\Temp\cc5NRPvh.s 			page 68


 2912              		.loc 1 690 5 is_stmt 1 view .LVU591
 2913              		.loc 1 690 59 is_stmt 0 view .LVU592
 2914 00a2 07A8     		add	r0, sp, #28
 2915 00a4 FFF7FEFF 		bl	strlen
 2916              	.LVL254:
 2917              		.loc 1 690 5 view .LVU593
 2918 00a8 0A23     		movs	r3, #10
 2919 00aa 82B2     		uxth	r2, r0
 2920 00ac 07A9     		add	r1, sp, #28
 2921 00ae 2046     		mov	r0, r4
 2922 00b0 FFF7FEFF 		bl	HAL_UART_Transmit
 2923              	.LVL255:
 691:Drivers/NRF24L01/Src/MY_NRF24.c ****                       10);
 692:Drivers/NRF24L01/Src/MY_NRF24.c ****     // c) Enabled Rx addresses
 693:Drivers/NRF24L01/Src/MY_NRF24.c ****     reg8Val = NRF24_read_register(0x02);
 2924              		.loc 1 693 5 is_stmt 1 view .LVU594
 2925              		.loc 1 693 15 is_stmt 0 view .LVU595
 2926 00b4 0220     		movs	r0, #2
 2927 00b6 FFF7FEFF 		bl	NRF24_read_register
 2928              	.LVL256:
 694:Drivers/NRF24L01/Src/MY_NRF24.c ****     sprintf(uartTxBuf,
 2929              		.loc 1 694 5 is_stmt 1 view .LVU596
 2930 00ba C0F34013 		ubfx	r3, r0, #5, #1
 2931 00be 0393     		str	r3, [sp, #12]
 2932 00c0 C0F30013 		ubfx	r3, r0, #4, #1
 2933 00c4 0293     		str	r3, [sp, #8]
 2934 00c6 C0F3C003 		ubfx	r3, r0, #3, #1
 2935 00ca 0193     		str	r3, [sp, #4]
 2936 00cc C0F38003 		ubfx	r3, r0, #2, #1
 2937 00d0 0093     		str	r3, [sp]
 2938 00d2 C0F34003 		ubfx	r3, r0, #1, #1
 2939 00d6 00F00102 		and	r2, r0, #1
 2940 00da 9449     		ldr	r1, .L216+16
 2941 00dc 07A8     		add	r0, sp, #28
 2942              	.LVL257:
 2943              		.loc 1 694 5 is_stmt 0 view .LVU597
 2944 00de FFF7FEFF 		bl	sprintf
 2945              	.LVL258:
 695:Drivers/NRF24L01/Src/MY_NRF24.c ****             "EN_RXADDR:\r\n		P0:	%d\r\n		P1:	"
 696:Drivers/NRF24L01/Src/MY_NRF24.c ****             "%d\r\n		P2:	%d\r\n		P3:	%d\r\n	"
 697:Drivers/NRF24L01/Src/MY_NRF24.c ****             "	P4:	%d\r\n		P5:	%d\r\n",
 698:Drivers/NRF24L01/Src/MY_NRF24.c ****             _BOOL(reg8Val & (1 << 0)), _BOOL(reg8Val & (1 << 1)),
 699:Drivers/NRF24L01/Src/MY_NRF24.c ****             _BOOL(reg8Val & (1 << 2)), _BOOL(reg8Val & (1 << 3)),
 700:Drivers/NRF24L01/Src/MY_NRF24.c ****             _BOOL(reg8Val & (1 << 4)), _BOOL(reg8Val & (1 << 5)));
 701:Drivers/NRF24L01/Src/MY_NRF24.c ****     HAL_UART_Transmit(&nrf24_huart, (uint8_t *)uartTxBuf, strlen(uartTxBuf),
 2946              		.loc 1 701 5 is_stmt 1 view .LVU598
 2947              		.loc 1 701 59 is_stmt 0 view .LVU599
 2948 00e2 07A8     		add	r0, sp, #28
 2949 00e4 FFF7FEFF 		bl	strlen
 2950              	.LVL259:
 2951              		.loc 1 701 5 view .LVU600
 2952 00e8 0A23     		movs	r3, #10
 2953 00ea 82B2     		uxth	r2, r0
 2954 00ec 07A9     		add	r1, sp, #28
 2955 00ee 2046     		mov	r0, r4
 2956 00f0 FFF7FEFF 		bl	HAL_UART_Transmit
 2957              	.LVL260:
ARM GAS  C:\Users\sangt\AppData\Local\Temp\cc5NRPvh.s 			page 69


 702:Drivers/NRF24L01/Src/MY_NRF24.c ****                       10);
 703:Drivers/NRF24L01/Src/MY_NRF24.c ****     // d) Address width
 704:Drivers/NRF24L01/Src/MY_NRF24.c ****     reg8Val = NRF24_read_register(0x03) & 0x03;
 2958              		.loc 1 704 5 is_stmt 1 view .LVU601
 2959              		.loc 1 704 15 is_stmt 0 view .LVU602
 2960 00f4 0320     		movs	r0, #3
 2961 00f6 FFF7FEFF 		bl	NRF24_read_register
 2962              	.LVL261:
 2963              		.loc 1 704 13 view .LVU603
 2964 00fa 00F00302 		and	r2, r0, #3
 2965              	.LVL262:
 705:Drivers/NRF24L01/Src/MY_NRF24.c ****     reg8Val += 2;
 2966              		.loc 1 705 5 is_stmt 1 view .LVU604
 706:Drivers/NRF24L01/Src/MY_NRF24.c ****     sprintf(uartTxBuf, "SETUP_AW:\r\n		%d bytes \r\n", reg8Val);
 2967              		.loc 1 706 5 view .LVU605
 2968 00fe 0232     		adds	r2, r2, #2
 2969              	.LVL263:
 2970              		.loc 1 706 5 is_stmt 0 view .LVU606
 2971 0100 8B49     		ldr	r1, .L216+20
 2972 0102 07A8     		add	r0, sp, #28
 2973 0104 FFF7FEFF 		bl	sprintf
 2974              	.LVL264:
 707:Drivers/NRF24L01/Src/MY_NRF24.c ****     HAL_UART_Transmit(&nrf24_huart, (uint8_t *)uartTxBuf, strlen(uartTxBuf),
 2975              		.loc 1 707 5 is_stmt 1 view .LVU607
 2976              		.loc 1 707 59 is_stmt 0 view .LVU608
 2977 0108 07A8     		add	r0, sp, #28
 2978 010a FFF7FEFF 		bl	strlen
 2979              	.LVL265:
 2980              		.loc 1 707 5 view .LVU609
 2981 010e 0A23     		movs	r3, #10
 2982 0110 82B2     		uxth	r2, r0
 2983 0112 07A9     		add	r1, sp, #28
 2984 0114 2046     		mov	r0, r4
 2985 0116 FFF7FEFF 		bl	HAL_UART_Transmit
 2986              	.LVL266:
 708:Drivers/NRF24L01/Src/MY_NRF24.c ****                       10);
 709:Drivers/NRF24L01/Src/MY_NRF24.c ****     // e) RF channel
 710:Drivers/NRF24L01/Src/MY_NRF24.c ****     reg8Val = NRF24_read_register(0x05);
 2987              		.loc 1 710 5 is_stmt 1 view .LVU610
 2988              		.loc 1 710 15 is_stmt 0 view .LVU611
 2989 011a 0520     		movs	r0, #5
 2990 011c FFF7FEFF 		bl	NRF24_read_register
 2991              	.LVL267:
 711:Drivers/NRF24L01/Src/MY_NRF24.c ****     sprintf(uartTxBuf, "RF_CH:\r\n		%d CH \r\n", reg8Val & 0x7F);
 2992              		.loc 1 711 5 is_stmt 1 view .LVU612
 2993 0120 00F07F02 		and	r2, r0, #127
 2994 0124 8349     		ldr	r1, .L216+24
 2995 0126 07A8     		add	r0, sp, #28
 2996              	.LVL268:
 2997              		.loc 1 711 5 is_stmt 0 view .LVU613
 2998 0128 FFF7FEFF 		bl	sprintf
 2999              	.LVL269:
 712:Drivers/NRF24L01/Src/MY_NRF24.c ****     HAL_UART_Transmit(&nrf24_huart, (uint8_t *)uartTxBuf, strlen(uartTxBuf),
 3000              		.loc 1 712 5 is_stmt 1 view .LVU614
 3001              		.loc 1 712 59 is_stmt 0 view .LVU615
 3002 012c 07A8     		add	r0, sp, #28
 3003 012e FFF7FEFF 		bl	strlen
ARM GAS  C:\Users\sangt\AppData\Local\Temp\cc5NRPvh.s 			page 70


 3004              	.LVL270:
 3005              		.loc 1 712 5 view .LVU616
 3006 0132 0A23     		movs	r3, #10
 3007 0134 82B2     		uxth	r2, r0
 3008 0136 07A9     		add	r1, sp, #28
 3009 0138 2046     		mov	r0, r4
 3010 013a FFF7FEFF 		bl	HAL_UART_Transmit
 3011              	.LVL271:
 713:Drivers/NRF24L01/Src/MY_NRF24.c ****                       10);
 714:Drivers/NRF24L01/Src/MY_NRF24.c ****     // f) Data rate & RF_PWR
 715:Drivers/NRF24L01/Src/MY_NRF24.c ****     reg8Val = NRF24_read_register(0x06);
 3012              		.loc 1 715 5 is_stmt 1 view .LVU617
 3013              		.loc 1 715 15 is_stmt 0 view .LVU618
 3014 013e 0620     		movs	r0, #6
 3015 0140 FFF7FEFF 		bl	NRF24_read_register
 3016              	.LVL272:
 3017 0144 0446     		mov	r4, r0
 3018              	.LVL273:
 716:Drivers/NRF24L01/Src/MY_NRF24.c ****     if (reg8Val & (1 << 3))
 3019              		.loc 1 716 5 is_stmt 1 view .LVU619
 3020              		.loc 1 716 8 is_stmt 0 view .LVU620
 3021 0146 10F0080F 		tst	r0, #8
 3022 014a 00F0EB81 		beq	.L201
 717:Drivers/NRF24L01/Src/MY_NRF24.c ****         sprintf(uartTxBuf, "Data Rate:\r\n		2Mbps \r\n");
 3023              		.loc 1 717 9 is_stmt 1 view .LVU621
 3024 014e 0DF11C0C 		add	ip, sp, #28
 3025 0152 794D     		ldr	r5, .L216+28
 3026 0154 0FCD     		ldmia	r5!, {r0, r1, r2, r3}
 3027              	.LVL274:
 3028              		.loc 1 717 9 is_stmt 0 view .LVU622
 3029 0156 ACE80F00 		stmia	ip!, {r0, r1, r2, r3}
 3030 015a 95E80300 		ldm	r5, {r0, r1}
 3031 015e 4CF8040B 		str	r0, [ip], #4
 3032 0162 2CF8021B 		strh	r1, [ip], #2	@ movhi
 3033 0166 090C     		lsrs	r1, r1, #16
 3034 0168 8CF80010 		strb	r1, [ip]
 3035              	.L202:
 718:Drivers/NRF24L01/Src/MY_NRF24.c ****     else
 719:Drivers/NRF24L01/Src/MY_NRF24.c ****         sprintf(uartTxBuf, "Data Rate:\r\n		1Mbps \r\n");
 720:Drivers/NRF24L01/Src/MY_NRF24.c ****     HAL_UART_Transmit(&nrf24_huart, (uint8_t *)uartTxBuf, strlen(uartTxBuf),
 3036              		.loc 1 720 5 is_stmt 1 view .LVU623
 3037              		.loc 1 720 59 is_stmt 0 view .LVU624
 3038 016c 07A8     		add	r0, sp, #28
 3039 016e FFF7FEFF 		bl	strlen
 3040              	.LVL275:
 3041              		.loc 1 720 5 view .LVU625
 3042 0172 0A23     		movs	r3, #10
 3043 0174 82B2     		uxth	r2, r0
 3044 0176 07A9     		add	r1, sp, #28
 3045 0178 6948     		ldr	r0, .L216+4
 3046 017a FFF7FEFF 		bl	HAL_UART_Transmit
 3047              	.LVL276:
 721:Drivers/NRF24L01/Src/MY_NRF24.c ****                       10);
 722:Drivers/NRF24L01/Src/MY_NRF24.c ****     reg8Val &= (3 << 1);
 3048              		.loc 1 722 5 is_stmt 1 view .LVU626
 723:Drivers/NRF24L01/Src/MY_NRF24.c ****     reg8Val = (reg8Val >> 1);
 3049              		.loc 1 723 5 view .LVU627
ARM GAS  C:\Users\sangt\AppData\Local\Temp\cc5NRPvh.s 			page 71


 3050              		.loc 1 723 13 is_stmt 0 view .LVU628
 3051 017e C4F34103 		ubfx	r3, r4, #1, #2
 3052              	.LVL277:
 724:Drivers/NRF24L01/Src/MY_NRF24.c ****     if (reg8Val == 0)
 3053              		.loc 1 724 5 is_stmt 1 view .LVU629
 3054              		.loc 1 724 8 is_stmt 0 view .LVU630
 3055 0182 14F0060F 		tst	r4, #6
 3056 0186 00F0DD81 		beq	.L212
 725:Drivers/NRF24L01/Src/MY_NRF24.c ****         sprintf(uartTxBuf, "RF_PWR:\r\n		-18dB \r\n");
 726:Drivers/NRF24L01/Src/MY_NRF24.c ****     else if (reg8Val == 1)
 3057              		.loc 1 726 10 is_stmt 1 view .LVU631
 3058              		.loc 1 726 13 is_stmt 0 view .LVU632
 3059 018a 012B     		cmp	r3, #1
 3060 018c 00F0E181 		beq	.L213
 727:Drivers/NRF24L01/Src/MY_NRF24.c ****         sprintf(uartTxBuf, "RF_PWR:\r\n		-12dB \r\n");
 728:Drivers/NRF24L01/Src/MY_NRF24.c ****     else if (reg8Val == 2)
 3061              		.loc 1 728 10 is_stmt 1 view .LVU633
 3062              		.loc 1 728 13 is_stmt 0 view .LVU634
 3063 0190 022B     		cmp	r3, #2
 3064 0192 00F0E581 		beq	.L214
 729:Drivers/NRF24L01/Src/MY_NRF24.c ****         sprintf(uartTxBuf, "RF_PWR:\r\n		-6dB \r\n");
 730:Drivers/NRF24L01/Src/MY_NRF24.c ****     else if (reg8Val == 3)
 3065              		.loc 1 730 10 is_stmt 1 view .LVU635
 3066              		.loc 1 730 13 is_stmt 0 view .LVU636
 3067 0196 032B     		cmp	r3, #3
 3068 0198 00F0EC81 		beq	.L215
 3069              	.LVL278:
 3070              	.L204:
 731:Drivers/NRF24L01/Src/MY_NRF24.c ****         sprintf(uartTxBuf, "RF_PWR:\r\n		0dB \r\n");
 732:Drivers/NRF24L01/Src/MY_NRF24.c ****     HAL_UART_Transmit(&nrf24_huart, (uint8_t *)uartTxBuf, strlen(uartTxBuf),
 3071              		.loc 1 732 5 is_stmt 1 view .LVU637
 3072              		.loc 1 732 59 is_stmt 0 view .LVU638
 3073 019c 07A8     		add	r0, sp, #28
 3074 019e FFF7FEFF 		bl	strlen
 3075              	.LVL279:
 3076              		.loc 1 732 5 view .LVU639
 3077 01a2 5F4C     		ldr	r4, .L216+4
 3078 01a4 0A23     		movs	r3, #10
 3079 01a6 82B2     		uxth	r2, r0
 3080 01a8 07A9     		add	r1, sp, #28
 3081 01aa 2046     		mov	r0, r4
 3082 01ac FFF7FEFF 		bl	HAL_UART_Transmit
 3083              	.LVL280:
 733:Drivers/NRF24L01/Src/MY_NRF24.c ****                       10);
 734:Drivers/NRF24L01/Src/MY_NRF24.c ****     // g) RX pipes addresses
 735:Drivers/NRF24L01/Src/MY_NRF24.c ****     uint8_t pipeAddrs[6];
 3084              		.loc 1 735 5 is_stmt 1 view .LVU640
 736:Drivers/NRF24L01/Src/MY_NRF24.c ****     NRF24_read_registerN(0x0A, pipeAddrs, 5);
 3085              		.loc 1 736 5 view .LVU641
 3086 01b0 0522     		movs	r2, #5
 3087 01b2 05A9     		add	r1, sp, #20
 3088 01b4 0A20     		movs	r0, #10
 3089 01b6 FFF7FEFF 		bl	NRF24_read_registerN
 3090              	.LVL281:
 737:Drivers/NRF24L01/Src/MY_NRF24.c ****     sprintf(
 3091              		.loc 1 737 5 view .LVU642
 738:Drivers/NRF24L01/Src/MY_NRF24.c ****         uartTxBuf, "RX_Pipe0 Addrs:\r\n		%02X,%02X,%02X,%02X,%02X  \r\n",
ARM GAS  C:\Users\sangt\AppData\Local\Temp\cc5NRPvh.s 			page 72


 739:Drivers/NRF24L01/Src/MY_NRF24.c ****         pipeAddrs[4], pipeAddrs[3], pipeAddrs[2], pipeAddrs[1], pipeAddrs[0]);
 3092              		.loc 1 739 46 is_stmt 0 view .LVU643
 3093 01ba 9DF81630 		ldrb	r3, [sp, #22]	@ zero_extendqisi2
 3094              		.loc 1 739 60 view .LVU644
 3095 01be 9DF81520 		ldrb	r2, [sp, #21]	@ zero_extendqisi2
 3096              		.loc 1 739 74 view .LVU645
 3097 01c2 9DF81410 		ldrb	r1, [sp, #20]	@ zero_extendqisi2
 737:Drivers/NRF24L01/Src/MY_NRF24.c ****     sprintf(
 3098              		.loc 1 737 5 view .LVU646
 3099 01c6 0291     		str	r1, [sp, #8]
 3100 01c8 0192     		str	r2, [sp, #4]
 3101 01ca 0093     		str	r3, [sp]
 3102 01cc 9DF81730 		ldrb	r3, [sp, #23]	@ zero_extendqisi2
 3103 01d0 9DF81820 		ldrb	r2, [sp, #24]	@ zero_extendqisi2
 3104 01d4 5949     		ldr	r1, .L216+32
 3105 01d6 07A8     		add	r0, sp, #28
 3106 01d8 FFF7FEFF 		bl	sprintf
 3107              	.LVL282:
 740:Drivers/NRF24L01/Src/MY_NRF24.c ****     HAL_UART_Transmit(&nrf24_huart, (uint8_t *)uartTxBuf, strlen(uartTxBuf),
 3108              		.loc 1 740 5 is_stmt 1 view .LVU647
 3109              		.loc 1 740 59 is_stmt 0 view .LVU648
 3110 01dc 07A8     		add	r0, sp, #28
 3111 01de FFF7FEFF 		bl	strlen
 3112              	.LVL283:
 3113              		.loc 1 740 5 view .LVU649
 3114 01e2 0A23     		movs	r3, #10
 3115 01e4 82B2     		uxth	r2, r0
 3116 01e6 07A9     		add	r1, sp, #28
 3117 01e8 2046     		mov	r0, r4
 3118 01ea FFF7FEFF 		bl	HAL_UART_Transmit
 3119              	.LVL284:
 741:Drivers/NRF24L01/Src/MY_NRF24.c ****                       10);
 742:Drivers/NRF24L01/Src/MY_NRF24.c **** 
 743:Drivers/NRF24L01/Src/MY_NRF24.c ****     NRF24_read_registerN(0x0A + 1, pipeAddrs, 5);
 3120              		.loc 1 743 5 is_stmt 1 view .LVU650
 3121 01ee 0522     		movs	r2, #5
 3122 01f0 05A9     		add	r1, sp, #20
 3123 01f2 0B20     		movs	r0, #11
 3124 01f4 FFF7FEFF 		bl	NRF24_read_registerN
 3125              	.LVL285:
 744:Drivers/NRF24L01/Src/MY_NRF24.c ****     sprintf(
 3126              		.loc 1 744 5 view .LVU651
 745:Drivers/NRF24L01/Src/MY_NRF24.c ****         uartTxBuf, "RX_Pipe1 Addrs:\r\n		%02X,%02X,%02X,%02X,%02X  \r\n",
 746:Drivers/NRF24L01/Src/MY_NRF24.c ****         pipeAddrs[4], pipeAddrs[3], pipeAddrs[2], pipeAddrs[1], pipeAddrs[0]);
 3127              		.loc 1 746 46 is_stmt 0 view .LVU652
 3128 01f8 9DF81630 		ldrb	r3, [sp, #22]	@ zero_extendqisi2
 3129              		.loc 1 746 60 view .LVU653
 3130 01fc 9DF81520 		ldrb	r2, [sp, #21]	@ zero_extendqisi2
 3131              		.loc 1 746 74 view .LVU654
 3132 0200 9DF81410 		ldrb	r1, [sp, #20]	@ zero_extendqisi2
 744:Drivers/NRF24L01/Src/MY_NRF24.c ****     sprintf(
 3133              		.loc 1 744 5 view .LVU655
 3134 0204 0291     		str	r1, [sp, #8]
 3135 0206 0192     		str	r2, [sp, #4]
 3136 0208 0093     		str	r3, [sp]
 3137 020a 9DF81730 		ldrb	r3, [sp, #23]	@ zero_extendqisi2
 3138 020e 9DF81820 		ldrb	r2, [sp, #24]	@ zero_extendqisi2
ARM GAS  C:\Users\sangt\AppData\Local\Temp\cc5NRPvh.s 			page 73


 3139 0212 4B49     		ldr	r1, .L216+36
 3140 0214 07A8     		add	r0, sp, #28
 3141 0216 FFF7FEFF 		bl	sprintf
 3142              	.LVL286:
 747:Drivers/NRF24L01/Src/MY_NRF24.c ****     HAL_UART_Transmit(&nrf24_huart, (uint8_t *)uartTxBuf, strlen(uartTxBuf),
 3143              		.loc 1 747 5 is_stmt 1 view .LVU656
 3144              		.loc 1 747 59 is_stmt 0 view .LVU657
 3145 021a 07A8     		add	r0, sp, #28
 3146 021c FFF7FEFF 		bl	strlen
 3147              	.LVL287:
 3148              		.loc 1 747 5 view .LVU658
 3149 0220 0A23     		movs	r3, #10
 3150 0222 82B2     		uxth	r2, r0
 3151 0224 07A9     		add	r1, sp, #28
 3152 0226 2046     		mov	r0, r4
 3153 0228 FFF7FEFF 		bl	HAL_UART_Transmit
 3154              	.LVL288:
 748:Drivers/NRF24L01/Src/MY_NRF24.c ****                       10);
 749:Drivers/NRF24L01/Src/MY_NRF24.c **** 
 750:Drivers/NRF24L01/Src/MY_NRF24.c ****     NRF24_read_registerN(0x0A + 2, pipeAddrs, 1);
 3155              		.loc 1 750 5 is_stmt 1 view .LVU659
 3156 022c 0122     		movs	r2, #1
 3157 022e 05A9     		add	r1, sp, #20
 3158 0230 0C20     		movs	r0, #12
 3159 0232 FFF7FEFF 		bl	NRF24_read_registerN
 3160              	.LVL289:
 751:Drivers/NRF24L01/Src/MY_NRF24.c ****     sprintf(uartTxBuf, "RX_Pipe2 Addrs:\r\n		xx,xx,xx,xx,%02X  \r\n",
 3161              		.loc 1 751 5 view .LVU660
 3162 0236 9DF81420 		ldrb	r2, [sp, #20]	@ zero_extendqisi2
 3163 023a 4249     		ldr	r1, .L216+40
 3164 023c 07A8     		add	r0, sp, #28
 3165 023e FFF7FEFF 		bl	sprintf
 3166              	.LVL290:
 752:Drivers/NRF24L01/Src/MY_NRF24.c ****             pipeAddrs[0]);
 753:Drivers/NRF24L01/Src/MY_NRF24.c ****     HAL_UART_Transmit(&nrf24_huart, (uint8_t *)uartTxBuf, strlen(uartTxBuf),
 3167              		.loc 1 753 5 view .LVU661
 3168              		.loc 1 753 59 is_stmt 0 view .LVU662
 3169 0242 07A8     		add	r0, sp, #28
 3170 0244 FFF7FEFF 		bl	strlen
 3171              	.LVL291:
 3172              		.loc 1 753 5 view .LVU663
 3173 0248 0A23     		movs	r3, #10
 3174 024a 82B2     		uxth	r2, r0
 3175 024c 07A9     		add	r1, sp, #28
 3176 024e 2046     		mov	r0, r4
 3177 0250 FFF7FEFF 		bl	HAL_UART_Transmit
 3178              	.LVL292:
 754:Drivers/NRF24L01/Src/MY_NRF24.c ****                       10);
 755:Drivers/NRF24L01/Src/MY_NRF24.c **** 
 756:Drivers/NRF24L01/Src/MY_NRF24.c ****     NRF24_read_registerN(0x0A + 3, pipeAddrs, 1);
 3179              		.loc 1 756 5 is_stmt 1 view .LVU664
 3180 0254 0122     		movs	r2, #1
 3181 0256 05A9     		add	r1, sp, #20
 3182 0258 0D20     		movs	r0, #13
 3183 025a FFF7FEFF 		bl	NRF24_read_registerN
 3184              	.LVL293:
 757:Drivers/NRF24L01/Src/MY_NRF24.c ****     sprintf(uartTxBuf, "RX_Pipe3 Addrs:\r\n		xx,xx,xx,xx,%02X  \r\n",
ARM GAS  C:\Users\sangt\AppData\Local\Temp\cc5NRPvh.s 			page 74


 3185              		.loc 1 757 5 view .LVU665
 3186 025e 9DF81420 		ldrb	r2, [sp, #20]	@ zero_extendqisi2
 3187 0262 3949     		ldr	r1, .L216+44
 3188 0264 07A8     		add	r0, sp, #28
 3189 0266 FFF7FEFF 		bl	sprintf
 3190              	.LVL294:
 758:Drivers/NRF24L01/Src/MY_NRF24.c ****             pipeAddrs[0]);
 759:Drivers/NRF24L01/Src/MY_NRF24.c ****     HAL_UART_Transmit(&nrf24_huart, (uint8_t *)uartTxBuf, strlen(uartTxBuf),
 3191              		.loc 1 759 5 view .LVU666
 3192              		.loc 1 759 59 is_stmt 0 view .LVU667
 3193 026a 07A8     		add	r0, sp, #28
 3194 026c FFF7FEFF 		bl	strlen
 3195              	.LVL295:
 3196              		.loc 1 759 5 view .LVU668
 3197 0270 0A23     		movs	r3, #10
 3198 0272 82B2     		uxth	r2, r0
 3199 0274 07A9     		add	r1, sp, #28
 3200 0276 2046     		mov	r0, r4
 3201 0278 FFF7FEFF 		bl	HAL_UART_Transmit
 3202              	.LVL296:
 760:Drivers/NRF24L01/Src/MY_NRF24.c ****                       10);
 761:Drivers/NRF24L01/Src/MY_NRF24.c **** 
 762:Drivers/NRF24L01/Src/MY_NRF24.c ****     NRF24_read_registerN(0x0A + 4, pipeAddrs, 1);
 3203              		.loc 1 762 5 is_stmt 1 view .LVU669
 3204 027c 0122     		movs	r2, #1
 3205 027e 05A9     		add	r1, sp, #20
 3206 0280 0E20     		movs	r0, #14
 3207 0282 FFF7FEFF 		bl	NRF24_read_registerN
 3208              	.LVL297:
 763:Drivers/NRF24L01/Src/MY_NRF24.c ****     sprintf(uartTxBuf, "RX_Pipe4 Addrs:\r\n		xx,xx,xx,xx,%02X  \r\n",
 3209              		.loc 1 763 5 view .LVU670
 3210 0286 9DF81420 		ldrb	r2, [sp, #20]	@ zero_extendqisi2
 3211 028a 3049     		ldr	r1, .L216+48
 3212 028c 07A8     		add	r0, sp, #28
 3213 028e FFF7FEFF 		bl	sprintf
 3214              	.LVL298:
 764:Drivers/NRF24L01/Src/MY_NRF24.c ****             pipeAddrs[0]);
 765:Drivers/NRF24L01/Src/MY_NRF24.c ****     HAL_UART_Transmit(&nrf24_huart, (uint8_t *)uartTxBuf, strlen(uartTxBuf),
 3215              		.loc 1 765 5 view .LVU671
 3216              		.loc 1 765 59 is_stmt 0 view .LVU672
 3217 0292 07A8     		add	r0, sp, #28
 3218 0294 FFF7FEFF 		bl	strlen
 3219              	.LVL299:
 3220              		.loc 1 765 5 view .LVU673
 3221 0298 0A23     		movs	r3, #10
 3222 029a 82B2     		uxth	r2, r0
 3223 029c 07A9     		add	r1, sp, #28
 3224 029e 2046     		mov	r0, r4
 3225 02a0 FFF7FEFF 		bl	HAL_UART_Transmit
 3226              	.LVL300:
 766:Drivers/NRF24L01/Src/MY_NRF24.c ****                       10);
 767:Drivers/NRF24L01/Src/MY_NRF24.c **** 
 768:Drivers/NRF24L01/Src/MY_NRF24.c ****     NRF24_read_registerN(0x0A + 5, pipeAddrs, 1);
 3227              		.loc 1 768 5 is_stmt 1 view .LVU674
 3228 02a4 0122     		movs	r2, #1
 3229 02a6 05A9     		add	r1, sp, #20
 3230 02a8 0F20     		movs	r0, #15
ARM GAS  C:\Users\sangt\AppData\Local\Temp\cc5NRPvh.s 			page 75


 3231 02aa FFF7FEFF 		bl	NRF24_read_registerN
 3232              	.LVL301:
 769:Drivers/NRF24L01/Src/MY_NRF24.c ****     sprintf(uartTxBuf, "RX_Pipe5 Addrs:\r\n		xx,xx,xx,xx,%02X  \r\n",
 3233              		.loc 1 769 5 view .LVU675
 3234 02ae 9DF81420 		ldrb	r2, [sp, #20]	@ zero_extendqisi2
 3235 02b2 2749     		ldr	r1, .L216+52
 3236 02b4 07A8     		add	r0, sp, #28
 3237 02b6 FFF7FEFF 		bl	sprintf
 3238              	.LVL302:
 770:Drivers/NRF24L01/Src/MY_NRF24.c ****             pipeAddrs[0]);
 771:Drivers/NRF24L01/Src/MY_NRF24.c ****     HAL_UART_Transmit(&nrf24_huart, (uint8_t *)uartTxBuf, strlen(uartTxBuf),
 3239              		.loc 1 771 5 view .LVU676
 3240              		.loc 1 771 59 is_stmt 0 view .LVU677
 3241 02ba 07A8     		add	r0, sp, #28
 3242 02bc FFF7FEFF 		bl	strlen
 3243              	.LVL303:
 3244              		.loc 1 771 5 view .LVU678
 3245 02c0 0A23     		movs	r3, #10
 3246 02c2 82B2     		uxth	r2, r0
 3247 02c4 07A9     		add	r1, sp, #28
 3248 02c6 2046     		mov	r0, r4
 3249 02c8 FFF7FEFF 		bl	HAL_UART_Transmit
 3250              	.LVL304:
 772:Drivers/NRF24L01/Src/MY_NRF24.c ****                       10);
 773:Drivers/NRF24L01/Src/MY_NRF24.c **** 
 774:Drivers/NRF24L01/Src/MY_NRF24.c ****     NRF24_read_registerN(0x0A + 6, pipeAddrs, 5);
 3251              		.loc 1 774 5 is_stmt 1 view .LVU679
 3252 02cc 0522     		movs	r2, #5
 3253 02ce 05A9     		add	r1, sp, #20
 3254 02d0 1020     		movs	r0, #16
 3255 02d2 FFF7FEFF 		bl	NRF24_read_registerN
 3256              	.LVL305:
 775:Drivers/NRF24L01/Src/MY_NRF24.c ****     sprintf(
 3257              		.loc 1 775 5 view .LVU680
 776:Drivers/NRF24L01/Src/MY_NRF24.c ****         uartTxBuf, "TX Addrs:\r\n		%02X,%02X,%02X,%02X,%02X  \r\n",
 777:Drivers/NRF24L01/Src/MY_NRF24.c ****         pipeAddrs[4], pipeAddrs[3], pipeAddrs[2], pipeAddrs[1], pipeAddrs[0]);
 3258              		.loc 1 777 46 is_stmt 0 view .LVU681
 3259 02d6 9DF81630 		ldrb	r3, [sp, #22]	@ zero_extendqisi2
 3260              		.loc 1 777 60 view .LVU682
 3261 02da 9DF81520 		ldrb	r2, [sp, #21]	@ zero_extendqisi2
 3262              		.loc 1 777 74 view .LVU683
 3263 02de 9DF81410 		ldrb	r1, [sp, #20]	@ zero_extendqisi2
 775:Drivers/NRF24L01/Src/MY_NRF24.c ****     sprintf(
 3264              		.loc 1 775 5 view .LVU684
 3265 02e2 0291     		str	r1, [sp, #8]
 3266 02e4 0192     		str	r2, [sp, #4]
 3267 02e6 0093     		str	r3, [sp]
 3268 02e8 9DF81730 		ldrb	r3, [sp, #23]	@ zero_extendqisi2
 3269 02ec 9DF81820 		ldrb	r2, [sp, #24]	@ zero_extendqisi2
 3270 02f0 1849     		ldr	r1, .L216+56
 3271 02f2 07A8     		add	r0, sp, #28
 3272 02f4 FFF7FEFF 		bl	sprintf
 3273              	.LVL306:
 778:Drivers/NRF24L01/Src/MY_NRF24.c ****     HAL_UART_Transmit(&nrf24_huart, (uint8_t *)uartTxBuf, strlen(uartTxBuf),
 3274              		.loc 1 778 5 is_stmt 1 view .LVU685
 3275              		.loc 1 778 59 is_stmt 0 view .LVU686
 3276 02f8 07A8     		add	r0, sp, #28
ARM GAS  C:\Users\sangt\AppData\Local\Temp\cc5NRPvh.s 			page 76


 3277 02fa FFF7FEFF 		bl	strlen
 3278              	.LVL307:
 3279              		.loc 1 778 5 view .LVU687
 3280 02fe 0A23     		movs	r3, #10
 3281 0300 82B2     		uxth	r2, r0
 3282 0302 07A9     		add	r1, sp, #28
 3283 0304 2046     		mov	r0, r4
 3284 0306 FFF7FEFF 		bl	HAL_UART_Transmit
 3285              	.LVL308:
 779:Drivers/NRF24L01/Src/MY_NRF24.c ****                       10);
 780:Drivers/NRF24L01/Src/MY_NRF24.c **** 
 781:Drivers/NRF24L01/Src/MY_NRF24.c ****     // h) RX PW (Payload Width 0 - 32)
 782:Drivers/NRF24L01/Src/MY_NRF24.c ****     reg8Val = NRF24_read_register(0x11);
 3286              		.loc 1 782 5 is_stmt 1 view .LVU688
 3287              		.loc 1 782 15 is_stmt 0 view .LVU689
 3288 030a 1120     		movs	r0, #17
 3289 030c FFF7FEFF 		bl	NRF24_read_register
 3290              	.LVL309:
 783:Drivers/NRF24L01/Src/MY_NRF24.c ****     sprintf(uartTxBuf, "RX_PW_P0:\r\n		%d bytes \r\n",
 3291              		.loc 1 783 5 is_stmt 1 view .LVU690
 3292 0310 00F03F02 		and	r2, r0, #63
 3293 0314 1049     		ldr	r1, .L216+60
 3294 0316 07A8     		add	r0, sp, #28
 3295 0318 20E0     		b	.L217
 3296              	.L218:
 3297 031a 00BF     		.align	2
 3298              	.L216:
 3299 031c 00000000 		.word	.LC0
 3300 0320 00000000 		.word	.LANCHOR12
 3301 0324 34000000 		.word	.LC1
 3302 0328 80000000 		.word	.LC4
 3303 032c C4000000 		.word	.LC5
 3304 0330 10010000 		.word	.LC6
 3305 0334 2C010000 		.word	.LC7
 3306 0338 40010000 		.word	.LC8
 3307 033c C0010000 		.word	.LC14
 3308 0340 F0010000 		.word	.LC15
 3309 0344 20020000 		.word	.LC16
 3310 0348 48020000 		.word	.LC17
 3311 034c 70020000 		.word	.LC18
 3312 0350 98020000 		.word	.LC19
 3313 0354 C0020000 		.word	.LC20
 3314 0358 EC020000 		.word	.LC21
 3315              	.L217:
 3316              	.LVL310:
 3317              		.loc 1 783 5 is_stmt 0 view .LVU691
 3318 035c FFF7FEFF 		bl	sprintf
 3319              	.LVL311:
 784:Drivers/NRF24L01/Src/MY_NRF24.c ****             reg8Val & 0x3F);
 785:Drivers/NRF24L01/Src/MY_NRF24.c ****     HAL_UART_Transmit(&nrf24_huart, (uint8_t *)uartTxBuf, strlen(uartTxBuf),
 3320              		.loc 1 785 5 is_stmt 1 view .LVU692
 3321              		.loc 1 785 59 is_stmt 0 view .LVU693
 3322 0360 07A8     		add	r0, sp, #28
 3323 0362 FFF7FEFF 		bl	strlen
 3324              	.LVL312:
 3325              		.loc 1 785 5 view .LVU694
 3326 0366 0A23     		movs	r3, #10
ARM GAS  C:\Users\sangt\AppData\Local\Temp\cc5NRPvh.s 			page 77


 3327 0368 82B2     		uxth	r2, r0
 3328 036a 07A9     		add	r1, sp, #28
 3329 036c 2046     		mov	r0, r4
 3330 036e FFF7FEFF 		bl	HAL_UART_Transmit
 3331              	.LVL313:
 786:Drivers/NRF24L01/Src/MY_NRF24.c ****                       10);
 787:Drivers/NRF24L01/Src/MY_NRF24.c **** 
 788:Drivers/NRF24L01/Src/MY_NRF24.c ****     reg8Val = NRF24_read_register(0x11 + 1);
 3332              		.loc 1 788 5 is_stmt 1 view .LVU695
 3333              		.loc 1 788 15 is_stmt 0 view .LVU696
 3334 0372 1220     		movs	r0, #18
 3335 0374 FFF7FEFF 		bl	NRF24_read_register
 3336              	.LVL314:
 789:Drivers/NRF24L01/Src/MY_NRF24.c ****     sprintf(uartTxBuf, "RX_PW_P1:\r\n		%d bytes \r\n",
 3337              		.loc 1 789 5 is_stmt 1 view .LVU697
 3338 0378 00F03F02 		and	r2, r0, #63
 3339 037c 8D49     		ldr	r1, .L219
 3340 037e 07A8     		add	r0, sp, #28
 3341              	.LVL315:
 3342              		.loc 1 789 5 is_stmt 0 view .LVU698
 3343 0380 FFF7FEFF 		bl	sprintf
 3344              	.LVL316:
 790:Drivers/NRF24L01/Src/MY_NRF24.c ****             reg8Val & 0x3F);
 791:Drivers/NRF24L01/Src/MY_NRF24.c ****     HAL_UART_Transmit(&nrf24_huart, (uint8_t *)uartTxBuf, strlen(uartTxBuf),
 3345              		.loc 1 791 5 is_stmt 1 view .LVU699
 3346              		.loc 1 791 59 is_stmt 0 view .LVU700
 3347 0384 07A8     		add	r0, sp, #28
 3348 0386 FFF7FEFF 		bl	strlen
 3349              	.LVL317:
 3350              		.loc 1 791 5 view .LVU701
 3351 038a 0A23     		movs	r3, #10
 3352 038c 82B2     		uxth	r2, r0
 3353 038e 07A9     		add	r1, sp, #28
 3354 0390 2046     		mov	r0, r4
 3355 0392 FFF7FEFF 		bl	HAL_UART_Transmit
 3356              	.LVL318:
 792:Drivers/NRF24L01/Src/MY_NRF24.c ****                       10);
 793:Drivers/NRF24L01/Src/MY_NRF24.c **** 
 794:Drivers/NRF24L01/Src/MY_NRF24.c ****     reg8Val = NRF24_read_register(0x11 + 2);
 3357              		.loc 1 794 5 is_stmt 1 view .LVU702
 3358              		.loc 1 794 15 is_stmt 0 view .LVU703
 3359 0396 1320     		movs	r0, #19
 3360 0398 FFF7FEFF 		bl	NRF24_read_register
 3361              	.LVL319:
 795:Drivers/NRF24L01/Src/MY_NRF24.c ****     sprintf(uartTxBuf, "RX_PW_P2:\r\n		%d bytes \r\n",
 3362              		.loc 1 795 5 is_stmt 1 view .LVU704
 3363 039c 00F03F02 		and	r2, r0, #63
 3364 03a0 8549     		ldr	r1, .L219+4
 3365 03a2 07A8     		add	r0, sp, #28
 3366              	.LVL320:
 3367              		.loc 1 795 5 is_stmt 0 view .LVU705
 3368 03a4 FFF7FEFF 		bl	sprintf
 3369              	.LVL321:
 796:Drivers/NRF24L01/Src/MY_NRF24.c ****             reg8Val & 0x3F);
 797:Drivers/NRF24L01/Src/MY_NRF24.c ****     HAL_UART_Transmit(&nrf24_huart, (uint8_t *)uartTxBuf, strlen(uartTxBuf),
 3370              		.loc 1 797 5 is_stmt 1 view .LVU706
 3371              		.loc 1 797 59 is_stmt 0 view .LVU707
ARM GAS  C:\Users\sangt\AppData\Local\Temp\cc5NRPvh.s 			page 78


 3372 03a8 07A8     		add	r0, sp, #28
 3373 03aa FFF7FEFF 		bl	strlen
 3374              	.LVL322:
 3375              		.loc 1 797 5 view .LVU708
 3376 03ae 0A23     		movs	r3, #10
 3377 03b0 82B2     		uxth	r2, r0
 3378 03b2 07A9     		add	r1, sp, #28
 3379 03b4 2046     		mov	r0, r4
 3380 03b6 FFF7FEFF 		bl	HAL_UART_Transmit
 3381              	.LVL323:
 798:Drivers/NRF24L01/Src/MY_NRF24.c ****                       10);
 799:Drivers/NRF24L01/Src/MY_NRF24.c **** 
 800:Drivers/NRF24L01/Src/MY_NRF24.c ****     reg8Val = NRF24_read_register(0x11 + 3);
 3382              		.loc 1 800 5 is_stmt 1 view .LVU709
 3383              		.loc 1 800 15 is_stmt 0 view .LVU710
 3384 03ba 1420     		movs	r0, #20
 3385 03bc FFF7FEFF 		bl	NRF24_read_register
 3386              	.LVL324:
 801:Drivers/NRF24L01/Src/MY_NRF24.c ****     sprintf(uartTxBuf, "RX_PW_P3:\r\n		%d bytes \r\n",
 3387              		.loc 1 801 5 is_stmt 1 view .LVU711
 3388 03c0 00F03F02 		and	r2, r0, #63
 3389 03c4 7D49     		ldr	r1, .L219+8
 3390 03c6 07A8     		add	r0, sp, #28
 3391              	.LVL325:
 3392              		.loc 1 801 5 is_stmt 0 view .LVU712
 3393 03c8 FFF7FEFF 		bl	sprintf
 3394              	.LVL326:
 802:Drivers/NRF24L01/Src/MY_NRF24.c ****             reg8Val & 0x3F);
 803:Drivers/NRF24L01/Src/MY_NRF24.c ****     HAL_UART_Transmit(&nrf24_huart, (uint8_t *)uartTxBuf, strlen(uartTxBuf),
 3395              		.loc 1 803 5 is_stmt 1 view .LVU713
 3396              		.loc 1 803 59 is_stmt 0 view .LVU714
 3397 03cc 07A8     		add	r0, sp, #28
 3398 03ce FFF7FEFF 		bl	strlen
 3399              	.LVL327:
 3400              		.loc 1 803 5 view .LVU715
 3401 03d2 0A23     		movs	r3, #10
 3402 03d4 82B2     		uxth	r2, r0
 3403 03d6 07A9     		add	r1, sp, #28
 3404 03d8 2046     		mov	r0, r4
 3405 03da FFF7FEFF 		bl	HAL_UART_Transmit
 3406              	.LVL328:
 804:Drivers/NRF24L01/Src/MY_NRF24.c ****                       10);
 805:Drivers/NRF24L01/Src/MY_NRF24.c **** 
 806:Drivers/NRF24L01/Src/MY_NRF24.c ****     reg8Val = NRF24_read_register(0x11 + 4);
 3407              		.loc 1 806 5 is_stmt 1 view .LVU716
 3408              		.loc 1 806 15 is_stmt 0 view .LVU717
 3409 03de 1520     		movs	r0, #21
 3410 03e0 FFF7FEFF 		bl	NRF24_read_register
 3411              	.LVL329:
 807:Drivers/NRF24L01/Src/MY_NRF24.c ****     sprintf(uartTxBuf, "RX_PW_P4:\r\n		%d bytes \r\n",
 3412              		.loc 1 807 5 is_stmt 1 view .LVU718
 3413 03e4 00F03F02 		and	r2, r0, #63
 3414 03e8 7549     		ldr	r1, .L219+12
 3415 03ea 07A8     		add	r0, sp, #28
 3416              	.LVL330:
 3417              		.loc 1 807 5 is_stmt 0 view .LVU719
 3418 03ec FFF7FEFF 		bl	sprintf
ARM GAS  C:\Users\sangt\AppData\Local\Temp\cc5NRPvh.s 			page 79


 3419              	.LVL331:
 808:Drivers/NRF24L01/Src/MY_NRF24.c ****             reg8Val & 0x3F);
 809:Drivers/NRF24L01/Src/MY_NRF24.c ****     HAL_UART_Transmit(&nrf24_huart, (uint8_t *)uartTxBuf, strlen(uartTxBuf),
 3420              		.loc 1 809 5 is_stmt 1 view .LVU720
 3421              		.loc 1 809 59 is_stmt 0 view .LVU721
 3422 03f0 07A8     		add	r0, sp, #28
 3423 03f2 FFF7FEFF 		bl	strlen
 3424              	.LVL332:
 3425              		.loc 1 809 5 view .LVU722
 3426 03f6 0A23     		movs	r3, #10
 3427 03f8 82B2     		uxth	r2, r0
 3428 03fa 07A9     		add	r1, sp, #28
 3429 03fc 2046     		mov	r0, r4
 3430 03fe FFF7FEFF 		bl	HAL_UART_Transmit
 3431              	.LVL333:
 810:Drivers/NRF24L01/Src/MY_NRF24.c ****                       10);
 811:Drivers/NRF24L01/Src/MY_NRF24.c **** 
 812:Drivers/NRF24L01/Src/MY_NRF24.c ****     reg8Val = NRF24_read_register(0x11 + 5);
 3432              		.loc 1 812 5 is_stmt 1 view .LVU723
 3433              		.loc 1 812 15 is_stmt 0 view .LVU724
 3434 0402 1620     		movs	r0, #22
 3435 0404 FFF7FEFF 		bl	NRF24_read_register
 3436              	.LVL334:
 813:Drivers/NRF24L01/Src/MY_NRF24.c ****     sprintf(uartTxBuf, "RX_PW_P5:\r\n		%d bytes \r\n",
 3437              		.loc 1 813 5 is_stmt 1 view .LVU725
 3438 0408 00F03F02 		and	r2, r0, #63
 3439 040c 6D49     		ldr	r1, .L219+16
 3440 040e 07A8     		add	r0, sp, #28
 3441              	.LVL335:
 3442              		.loc 1 813 5 is_stmt 0 view .LVU726
 3443 0410 FFF7FEFF 		bl	sprintf
 3444              	.LVL336:
 814:Drivers/NRF24L01/Src/MY_NRF24.c ****             reg8Val & 0x3F);
 815:Drivers/NRF24L01/Src/MY_NRF24.c ****     HAL_UART_Transmit(&nrf24_huart, (uint8_t *)uartTxBuf, strlen(uartTxBuf),
 3445              		.loc 1 815 5 is_stmt 1 view .LVU727
 3446              		.loc 1 815 59 is_stmt 0 view .LVU728
 3447 0414 07A8     		add	r0, sp, #28
 3448 0416 FFF7FEFF 		bl	strlen
 3449              	.LVL337:
 3450              		.loc 1 815 5 view .LVU729
 3451 041a 0A23     		movs	r3, #10
 3452 041c 82B2     		uxth	r2, r0
 3453 041e 07A9     		add	r1, sp, #28
 3454 0420 2046     		mov	r0, r4
 3455 0422 FFF7FEFF 		bl	HAL_UART_Transmit
 3456              	.LVL338:
 816:Drivers/NRF24L01/Src/MY_NRF24.c ****                       10);
 817:Drivers/NRF24L01/Src/MY_NRF24.c **** 
 818:Drivers/NRF24L01/Src/MY_NRF24.c ****     // i) Dynamic payload enable for each pipe
 819:Drivers/NRF24L01/Src/MY_NRF24.c ****     reg8Val = NRF24_read_register(0x1c);
 3457              		.loc 1 819 5 is_stmt 1 view .LVU730
 3458              		.loc 1 819 15 is_stmt 0 view .LVU731
 3459 0426 1C20     		movs	r0, #28
 3460 0428 FFF7FEFF 		bl	NRF24_read_register
 3461              	.LVL339:
 820:Drivers/NRF24L01/Src/MY_NRF24.c ****     sprintf(uartTxBuf,
 3462              		.loc 1 820 5 is_stmt 1 view .LVU732
ARM GAS  C:\Users\sangt\AppData\Local\Temp\cc5NRPvh.s 			page 80


 3463 042c C0F34013 		ubfx	r3, r0, #5, #1
 3464 0430 0393     		str	r3, [sp, #12]
 3465 0432 C0F30013 		ubfx	r3, r0, #4, #1
 3466 0436 0293     		str	r3, [sp, #8]
 3467 0438 C0F3C003 		ubfx	r3, r0, #3, #1
 3468 043c 0193     		str	r3, [sp, #4]
 3469 043e C0F38003 		ubfx	r3, r0, #2, #1
 3470 0442 0093     		str	r3, [sp]
 3471 0444 C0F34003 		ubfx	r3, r0, #1, #1
 3472 0448 00F00102 		and	r2, r0, #1
 3473 044c 5E49     		ldr	r1, .L219+20
 3474 044e 07A8     		add	r0, sp, #28
 3475              	.LVL340:
 3476              		.loc 1 820 5 is_stmt 0 view .LVU733
 3477 0450 FFF7FEFF 		bl	sprintf
 3478              	.LVL341:
 821:Drivers/NRF24L01/Src/MY_NRF24.c ****             "DYNPD_pipe:\r\n		P0:	%d\r\n		P1:	"
 822:Drivers/NRF24L01/Src/MY_NRF24.c ****             "%d\r\n		P2:	%d\r\n		P3:	%d\r\n	"
 823:Drivers/NRF24L01/Src/MY_NRF24.c ****             "	P4:	%d\r\n		P5:	%d\r\n",
 824:Drivers/NRF24L01/Src/MY_NRF24.c ****             _BOOL(reg8Val & (1 << 0)), _BOOL(reg8Val & (1 << 1)),
 825:Drivers/NRF24L01/Src/MY_NRF24.c ****             _BOOL(reg8Val & (1 << 2)), _BOOL(reg8Val & (1 << 3)),
 826:Drivers/NRF24L01/Src/MY_NRF24.c ****             _BOOL(reg8Val & (1 << 4)), _BOOL(reg8Val & (1 << 5)));
 827:Drivers/NRF24L01/Src/MY_NRF24.c ****     HAL_UART_Transmit(&nrf24_huart, (uint8_t *)uartTxBuf, strlen(uartTxBuf),
 3479              		.loc 1 827 5 is_stmt 1 view .LVU734
 3480              		.loc 1 827 59 is_stmt 0 view .LVU735
 3481 0454 07A8     		add	r0, sp, #28
 3482 0456 FFF7FEFF 		bl	strlen
 3483              	.LVL342:
 3484              		.loc 1 827 5 view .LVU736
 3485 045a 0A23     		movs	r3, #10
 3486 045c 82B2     		uxth	r2, r0
 3487 045e 07A9     		add	r1, sp, #28
 3488 0460 2046     		mov	r0, r4
 3489 0462 FFF7FEFF 		bl	HAL_UART_Transmit
 3490              	.LVL343:
 828:Drivers/NRF24L01/Src/MY_NRF24.c ****                       10);
 829:Drivers/NRF24L01/Src/MY_NRF24.c **** 
 830:Drivers/NRF24L01/Src/MY_NRF24.c ****     // j) EN_DPL (is Dynamic payload feature enabled ?)
 831:Drivers/NRF24L01/Src/MY_NRF24.c ****     reg8Val = NRF24_read_register(0x1d);
 3491              		.loc 1 831 5 is_stmt 1 view .LVU737
 3492              		.loc 1 831 15 is_stmt 0 view .LVU738
 3493 0466 1D20     		movs	r0, #29
 3494 0468 FFF7FEFF 		bl	NRF24_read_register
 3495              	.LVL344:
 3496 046c 0546     		mov	r5, r0
 3497              	.LVL345:
 832:Drivers/NRF24L01/Src/MY_NRF24.c ****     if (reg8Val & (1 << 2))
 3498              		.loc 1 832 5 is_stmt 1 view .LVU739
 3499              		.loc 1 832 8 is_stmt 0 view .LVU740
 3500 046e 10F0040F 		tst	r0, #4
 3501 0472 00F08680 		beq	.L207
 833:Drivers/NRF24L01/Src/MY_NRF24.c ****         sprintf(uartTxBuf, "EN_DPL:\r\n		Enabled \r\n");
 3502              		.loc 1 833 9 is_stmt 1 view .LVU741
 3503 0476 07AC     		add	r4, sp, #28
 3504 0478 544E     		ldr	r6, .L219+24
 3505 047a 0FCE     		ldmia	r6!, {r0, r1, r2, r3}
 3506              	.LVL346:
ARM GAS  C:\Users\sangt\AppData\Local\Temp\cc5NRPvh.s 			page 81


 3507              		.loc 1 833 9 is_stmt 0 view .LVU742
 3508 047c 0FC4     		stmia	r4!, {r0, r1, r2, r3}
 3509 047e 96E80300 		ldm	r6, {r0, r1}
 3510 0482 44F8040B 		str	r0, [r4], #4
 3511 0486 2180     		strh	r1, [r4]	@ movhi
 3512              	.L208:
 834:Drivers/NRF24L01/Src/MY_NRF24.c ****     else
 835:Drivers/NRF24L01/Src/MY_NRF24.c ****         sprintf(uartTxBuf, "EN_DPL:\r\n		Disabled \r\n");
 836:Drivers/NRF24L01/Src/MY_NRF24.c ****     HAL_UART_Transmit(&nrf24_huart, (uint8_t *)uartTxBuf, strlen(uartTxBuf),
 3513              		.loc 1 836 5 is_stmt 1 view .LVU743
 3514              		.loc 1 836 59 is_stmt 0 view .LVU744
 3515 0488 07A8     		add	r0, sp, #28
 3516 048a FFF7FEFF 		bl	strlen
 3517              	.LVL347:
 3518              		.loc 1 836 5 view .LVU745
 3519 048e 0A23     		movs	r3, #10
 3520 0490 82B2     		uxth	r2, r0
 3521 0492 07A9     		add	r1, sp, #28
 3522 0494 4E48     		ldr	r0, .L219+28
 3523 0496 FFF7FEFF 		bl	HAL_UART_Transmit
 3524              	.LVL348:
 837:Drivers/NRF24L01/Src/MY_NRF24.c ****                       10);
 838:Drivers/NRF24L01/Src/MY_NRF24.c **** 
 839:Drivers/NRF24L01/Src/MY_NRF24.c ****     // k) EN_ACK_PAY
 840:Drivers/NRF24L01/Src/MY_NRF24.c ****     if (reg8Val & (1 << 1))
 3525              		.loc 1 840 5 is_stmt 1 view .LVU746
 3526              		.loc 1 840 8 is_stmt 0 view .LVU747
 3527 049a 15F0020F 		tst	r5, #2
 3528 049e 7DD0     		beq	.L209
 841:Drivers/NRF24L01/Src/MY_NRF24.c ****         sprintf(uartTxBuf, "EN_ACK_PAY:\r\n		Enabled \r\n");
 3529              		.loc 1 841 9 is_stmt 1 view .LVU748
 3530 04a0 07AC     		add	r4, sp, #28
 3531 04a2 4C4D     		ldr	r5, .L219+32
 3532 04a4 0FCD     		ldmia	r5!, {r0, r1, r2, r3}
 3533 04a6 0FC4     		stmia	r4!, {r0, r1, r2, r3}
 3534 04a8 95E80700 		ldm	r5, {r0, r1, r2}
 3535 04ac 03C4     		stmia	r4!, {r0, r1}
 3536 04ae 2280     		strh	r2, [r4]	@ movhi
 3537              	.L210:
 842:Drivers/NRF24L01/Src/MY_NRF24.c ****     else
 843:Drivers/NRF24L01/Src/MY_NRF24.c ****         sprintf(uartTxBuf, "EN_ACK_PAY:\r\n		Disabled \r\n");
 844:Drivers/NRF24L01/Src/MY_NRF24.c ****     HAL_UART_Transmit(&nrf24_huart, (uint8_t *)uartTxBuf, strlen(uartTxBuf),
 3538              		.loc 1 844 5 view .LVU749
 3539              		.loc 1 844 59 is_stmt 0 view .LVU750
 3540 04b0 07A8     		add	r0, sp, #28
 3541 04b2 FFF7FEFF 		bl	strlen
 3542              	.LVL349:
 3543              		.loc 1 844 5 view .LVU751
 3544 04b6 464D     		ldr	r5, .L219+28
 3545 04b8 0A23     		movs	r3, #10
 3546 04ba 82B2     		uxth	r2, r0
 3547 04bc 07A9     		add	r1, sp, #28
 3548 04be 2846     		mov	r0, r5
 3549 04c0 FFF7FEFF 		bl	HAL_UART_Transmit
 3550              	.LVL350:
 845:Drivers/NRF24L01/Src/MY_NRF24.c ****                       10);
 846:Drivers/NRF24L01/Src/MY_NRF24.c **** 
ARM GAS  C:\Users\sangt\AppData\Local\Temp\cc5NRPvh.s 			page 82


 847:Drivers/NRF24L01/Src/MY_NRF24.c ****     sprintf(uartTxBuf,
 3551              		.loc 1 847 5 is_stmt 1 view .LVU752
 3552 04c4 0DF11C0C 		add	ip, sp, #28
 3553 04c8 434C     		ldr	r4, .L219+36
 3554 04ca 0FCC     		ldmia	r4!, {r0, r1, r2, r3}
 3555 04cc ACE80F00 		stmia	ip!, {r0, r1, r2, r3}
 3556 04d0 0FCC     		ldmia	r4!, {r0, r1, r2, r3}
 3557 04d2 ACE80F00 		stmia	ip!, {r0, r1, r2, r3}
 3558 04d6 0FCC     		ldmia	r4!, {r0, r1, r2, r3}
 3559 04d8 ACE80F00 		stmia	ip!, {r0, r1, r2, r3}
 3560 04dc 2368     		ldr	r3, [r4]
 3561 04de 2CF8023B 		strh	r3, [ip], #2	@ movhi
 3562 04e2 1B0C     		lsrs	r3, r3, #16
 3563 04e4 8CF80030 		strb	r3, [ip]
 848:Drivers/NRF24L01/Src/MY_NRF24.c ****             "\r\n**********************************************\r\n");
 849:Drivers/NRF24L01/Src/MY_NRF24.c ****     HAL_UART_Transmit(&nrf24_huart, (uint8_t *)uartTxBuf, strlen(uartTxBuf),
 3564              		.loc 1 849 5 view .LVU753
 3565              		.loc 1 849 59 is_stmt 0 view .LVU754
 3566 04e8 07A8     		add	r0, sp, #28
 3567 04ea FFF7FEFF 		bl	strlen
 3568              	.LVL351:
 3569              		.loc 1 849 5 view .LVU755
 3570 04ee 0A23     		movs	r3, #10
 3571 04f0 82B2     		uxth	r2, r0
 3572 04f2 07A9     		add	r1, sp, #28
 3573 04f4 2846     		mov	r0, r5
 3574 04f6 FFF7FEFF 		bl	HAL_UART_Transmit
 3575              	.LVL352:
 850:Drivers/NRF24L01/Src/MY_NRF24.c ****                       10);
 851:Drivers/NRF24L01/Src/MY_NRF24.c **** }
 3576              		.loc 1 851 1 view .LVU756
 3577 04fa 20B0     		add	sp, sp, #128
 3578              	.LCFI67:
 3579              		.cfi_remember_state
 3580              		.cfi_def_cfa_offset 16
 3581              		@ sp needed
 3582 04fc 70BD     		pop	{r4, r5, r6, pc}
 3583              	.LVL353:
 3584              	.L199:
 3585              	.LCFI68:
 3586              		.cfi_restore_state
 675:Drivers/NRF24L01/Src/MY_NRF24.c ****     } else {
 3587              		.loc 1 675 13 is_stmt 1 view .LVU757
 3588 04fe 07AC     		add	r4, sp, #28
 3589 0500 364D     		ldr	r5, .L219+40
 3590 0502 0FCD     		ldmia	r5!, {r0, r1, r2, r3}
 3591              	.LVL354:
 675:Drivers/NRF24L01/Src/MY_NRF24.c ****     } else {
 3592              		.loc 1 675 13 is_stmt 0 view .LVU758
 3593 0504 0FC4     		stmia	r4!, {r0, r1, r2, r3}
 3594 0506 95E80700 		ldm	r5, {r0, r1, r2}
 3595 050a 03C4     		stmia	r4!, {r0, r1}
 3596 050c 24F8022B 		strh	r2, [r4], #2	@ movhi
 3597 0510 120C     		lsrs	r2, r2, #16
 3598 0512 2270     		strb	r2, [r4]
 3599 0514 A4E5     		b	.L200
 3600              	.LVL355:
ARM GAS  C:\Users\sangt\AppData\Local\Temp\cc5NRPvh.s 			page 83


 3601              	.L198:
 677:Drivers/NRF24L01/Src/MY_NRF24.c ****     }
 3602              		.loc 1 677 9 is_stmt 1 view .LVU759
 3603 0516 07AC     		add	r4, sp, #28
 3604 0518 314D     		ldr	r5, .L219+44
 3605 051a 0FCD     		ldmia	r5!, {r0, r1, r2, r3}
 3606              	.LVL356:
 677:Drivers/NRF24L01/Src/MY_NRF24.c ****     }
 3607              		.loc 1 677 9 is_stmt 0 view .LVU760
 3608 051c 0FC4     		stmia	r4!, {r0, r1, r2, r3}
 3609 051e 2B68     		ldr	r3, [r5]
 3610 0520 2360     		str	r3, [r4]
 3611 0522 9DE5     		b	.L200
 3612              	.LVL357:
 3613              	.L201:
 719:Drivers/NRF24L01/Src/MY_NRF24.c ****     HAL_UART_Transmit(&nrf24_huart, (uint8_t *)uartTxBuf, strlen(uartTxBuf),
 3614              		.loc 1 719 9 is_stmt 1 view .LVU761
 3615 0524 0DF11C0C 		add	ip, sp, #28
 3616 0528 2E4D     		ldr	r5, .L219+48
 3617 052a 0FCD     		ldmia	r5!, {r0, r1, r2, r3}
 3618              	.LVL358:
 719:Drivers/NRF24L01/Src/MY_NRF24.c ****     HAL_UART_Transmit(&nrf24_huart, (uint8_t *)uartTxBuf, strlen(uartTxBuf),
 3619              		.loc 1 719 9 is_stmt 0 view .LVU762
 3620 052c ACE80F00 		stmia	ip!, {r0, r1, r2, r3}
 3621 0530 95E80300 		ldm	r5, {r0, r1}
 3622 0534 4CF8040B 		str	r0, [ip], #4
 3623 0538 2CF8021B 		strh	r1, [ip], #2	@ movhi
 3624 053c 090C     		lsrs	r1, r1, #16
 3625 053e 8CF80010 		strb	r1, [ip]
 3626 0542 13E6     		b	.L202
 3627              	.LVL359:
 3628              	.L212:
 725:Drivers/NRF24L01/Src/MY_NRF24.c ****     else if (reg8Val == 1)
 3629              		.loc 1 725 9 is_stmt 1 view .LVU763
 3630 0544 07AC     		add	r4, sp, #28
 3631 0546 284D     		ldr	r5, .L219+52
 3632 0548 0FCD     		ldmia	r5!, {r0, r1, r2, r3}
 3633              	.LVL360:
 725:Drivers/NRF24L01/Src/MY_NRF24.c ****     else if (reg8Val == 1)
 3634              		.loc 1 725 9 is_stmt 0 view .LVU764
 3635 054a 0FC4     		stmia	r4!, {r0, r1, r2, r3}
 3636 054c 2B68     		ldr	r3, [r5]
 3637 054e 2360     		str	r3, [r4]
 3638 0550 24E6     		b	.L204
 3639              	.LVL361:
 3640              	.L213:
 727:Drivers/NRF24L01/Src/MY_NRF24.c ****     else if (reg8Val == 2)
 3641              		.loc 1 727 9 is_stmt 1 view .LVU765
 3642 0552 07AC     		add	r4, sp, #28
 3643 0554 254D     		ldr	r5, .L219+56
 3644 0556 0FCD     		ldmia	r5!, {r0, r1, r2, r3}
 3645              	.LVL362:
 727:Drivers/NRF24L01/Src/MY_NRF24.c ****     else if (reg8Val == 2)
 3646              		.loc 1 727 9 is_stmt 0 view .LVU766
 3647 0558 0FC4     		stmia	r4!, {r0, r1, r2, r3}
 3648 055a 2B68     		ldr	r3, [r5]
 3649 055c 2360     		str	r3, [r4]
ARM GAS  C:\Users\sangt\AppData\Local\Temp\cc5NRPvh.s 			page 84


 3650 055e 1DE6     		b	.L204
 3651              	.LVL363:
 3652              	.L214:
 729:Drivers/NRF24L01/Src/MY_NRF24.c ****     else if (reg8Val == 3)
 3653              		.loc 1 729 9 is_stmt 1 view .LVU767
 3654 0560 07AC     		add	r4, sp, #28
 3655 0562 234D     		ldr	r5, .L219+60
 3656 0564 0FCD     		ldmia	r5!, {r0, r1, r2, r3}
 3657              	.LVL364:
 729:Drivers/NRF24L01/Src/MY_NRF24.c ****     else if (reg8Val == 3)
 3658              		.loc 1 729 9 is_stmt 0 view .LVU768
 3659 0566 0FC4     		stmia	r4!, {r0, r1, r2, r3}
 3660 0568 2B68     		ldr	r3, [r5]
 3661 056a 24F8023B 		strh	r3, [r4], #2	@ movhi
 3662 056e 1B0C     		lsrs	r3, r3, #16
 3663 0570 2370     		strb	r3, [r4]
 3664 0572 13E6     		b	.L204
 3665              	.LVL365:
 3666              	.L215:
 731:Drivers/NRF24L01/Src/MY_NRF24.c ****     HAL_UART_Transmit(&nrf24_huart, (uint8_t *)uartTxBuf, strlen(uartTxBuf),
 3667              		.loc 1 731 9 is_stmt 1 view .LVU769
 3668 0574 07AC     		add	r4, sp, #28
 3669 0576 1F4D     		ldr	r5, .L219+64
 3670 0578 0FCD     		ldmia	r5!, {r0, r1, r2, r3}
 3671              	.LVL366:
 731:Drivers/NRF24L01/Src/MY_NRF24.c ****     HAL_UART_Transmit(&nrf24_huart, (uint8_t *)uartTxBuf, strlen(uartTxBuf),
 3672              		.loc 1 731 9 is_stmt 0 view .LVU770
 3673 057a 0FC4     		stmia	r4!, {r0, r1, r2, r3}
 3674 057c 2B68     		ldr	r3, [r5]
 3675 057e 2380     		strh	r3, [r4]	@ movhi
 3676 0580 0CE6     		b	.L204
 3677              	.LVL367:
 3678              	.L207:
 835:Drivers/NRF24L01/Src/MY_NRF24.c ****     HAL_UART_Transmit(&nrf24_huart, (uint8_t *)uartTxBuf, strlen(uartTxBuf),
 3679              		.loc 1 835 9 is_stmt 1 view .LVU771
 3680 0582 07AC     		add	r4, sp, #28
 3681 0584 1C4E     		ldr	r6, .L219+68
 3682 0586 0FCE     		ldmia	r6!, {r0, r1, r2, r3}
 3683              	.LVL368:
 835:Drivers/NRF24L01/Src/MY_NRF24.c ****     HAL_UART_Transmit(&nrf24_huart, (uint8_t *)uartTxBuf, strlen(uartTxBuf),
 3684              		.loc 1 835 9 is_stmt 0 view .LVU772
 3685 0588 0FC4     		stmia	r4!, {r0, r1, r2, r3}
 3686 058a 96E80300 		ldm	r6, {r0, r1}
 3687 058e 44F8040B 		str	r0, [r4], #4
 3688 0592 24F8021B 		strh	r1, [r4], #2	@ movhi
 3689 0596 090C     		lsrs	r1, r1, #16
 3690 0598 2170     		strb	r1, [r4]
 3691 059a 75E7     		b	.L208
 3692              	.L209:
 843:Drivers/NRF24L01/Src/MY_NRF24.c ****     HAL_UART_Transmit(&nrf24_huart, (uint8_t *)uartTxBuf, strlen(uartTxBuf),
 3693              		.loc 1 843 9 is_stmt 1 view .LVU773
 3694 059c 07AC     		add	r4, sp, #28
 3695 059e 174D     		ldr	r5, .L219+72
 3696 05a0 0FCD     		ldmia	r5!, {r0, r1, r2, r3}
 3697 05a2 0FC4     		stmia	r4!, {r0, r1, r2, r3}
 3698 05a4 95E80700 		ldm	r5, {r0, r1, r2}
 3699 05a8 03C4     		stmia	r4!, {r0, r1}
ARM GAS  C:\Users\sangt\AppData\Local\Temp\cc5NRPvh.s 			page 85


 3700 05aa 24F8022B 		strh	r2, [r4], #2	@ movhi
 3701 05ae 120C     		lsrs	r2, r2, #16
 3702 05b0 2270     		strb	r2, [r4]
 3703 05b2 7DE7     		b	.L210
 3704              	.L220:
 3705              		.align	2
 3706              	.L219:
 3707 05b4 08030000 		.word	.LC22
 3708 05b8 24030000 		.word	.LC23
 3709 05bc 40030000 		.word	.LC24
 3710 05c0 5C030000 		.word	.LC25
 3711 05c4 78030000 		.word	.LC26
 3712 05c8 94030000 		.word	.LC27
 3713 05cc E0030000 		.word	.LC28
 3714 05d0 00000000 		.word	.LANCHOR12
 3715 05d4 10040000 		.word	.LC30
 3716 05d8 00000000 		.word	.LC0
 3717 05dc 50000000 		.word	.LC2
 3718 05e0 6C000000 		.word	.LC3
 3719 05e4 58010000 		.word	.LC9
 3720 05e8 70010000 		.word	.LC10
 3721 05ec 84010000 		.word	.LC11
 3722 05f0 98010000 		.word	.LC12
 3723 05f4 AC010000 		.word	.LC13
 3724 05f8 F8030000 		.word	.LC29
 3725 05fc 2C040000 		.word	.LC31
 3726              		.cfi_endproc
 3727              	.LFE125:
 3729              		.section	.text.NRF24_begin,"ax",%progbits
 3730              		.align	1
 3731              		.global	NRF24_begin
 3732              		.syntax unified
 3733              		.thumb
 3734              		.thumb_func
 3736              	NRF24_begin:
 3737              	.LVL369:
 3738              	.LFB87:
 168:Drivers/NRF24L01/Src/MY_NRF24.c ****     // Copy SPI handle variable
 3739              		.loc 1 168 64 view -0
 3740              		.cfi_startproc
 3741              		@ args = 92, pretend = 8, frame = 8
 3742              		@ frame_needed = 0, uses_anonymous_args = 0
 168:Drivers/NRF24L01/Src/MY_NRF24.c ****     // Copy SPI handle variable
 3743              		.loc 1 168 64 is_stmt 0 view .LVU775
 3744 0000 82B0     		sub	sp, sp, #8
 3745              	.LCFI69:
 3746              		.cfi_def_cfa_offset 8
 3747 0002 70B5     		push	{r4, r5, r6, lr}
 3748              	.LCFI70:
 3749              		.cfi_def_cfa_offset 24
 3750              		.cfi_offset 4, -24
 3751              		.cfi_offset 5, -20
 3752              		.cfi_offset 6, -16
 3753              		.cfi_offset 14, -12
 3754 0004 82B0     		sub	sp, sp, #8
 3755              	.LCFI71:
 3756              		.cfi_def_cfa_offset 32
ARM GAS  C:\Users\sangt\AppData\Local\Temp\cc5NRPvh.s 			page 86


 3757 0006 0646     		mov	r6, r0
 3758 0008 0D46     		mov	r5, r1
 3759 000a 1446     		mov	r4, r2
 3760 000c 06A9     		add	r1, sp, #24
 3761 000e 41F8043F 		str	r3, [r1, #4]!
 170:Drivers/NRF24L01/Src/MY_NRF24.c ****     // Copy Pins and Port variables
 3762              		.loc 1 170 5 is_stmt 1 view .LVU776
 3763 0012 5822     		movs	r2, #88
 3764              	.LVL370:
 170:Drivers/NRF24L01/Src/MY_NRF24.c ****     // Copy Pins and Port variables
 3765              		.loc 1 170 5 is_stmt 0 view .LVU777
 3766 0014 5F48     		ldr	r0, .L223
 3767              	.LVL371:
 170:Drivers/NRF24L01/Src/MY_NRF24.c ****     // Copy Pins and Port variables
 3768              		.loc 1 170 5 view .LVU778
 3769 0016 FFF7FEFF 		bl	memcpy
 3770              	.LVL372:
 172:Drivers/NRF24L01/Src/MY_NRF24.c ****     nrf24_CSN_PIN = nrfCSN_Pin;
 3771              		.loc 1 172 5 is_stmt 1 view .LVU779
 172:Drivers/NRF24L01/Src/MY_NRF24.c ****     nrf24_CSN_PIN = nrfCSN_Pin;
 3772              		.loc 1 172 16 is_stmt 0 view .LVU780
 3773 001a 5F4B     		ldr	r3, .L223+4
 3774 001c 1E60     		str	r6, [r3]
 173:Drivers/NRF24L01/Src/MY_NRF24.c ****     nrf24_CE_PIN = nrfCE_Pin;
 3775              		.loc 1 173 5 is_stmt 1 view .LVU781
 173:Drivers/NRF24L01/Src/MY_NRF24.c ****     nrf24_CE_PIN = nrfCE_Pin;
 3776              		.loc 1 173 19 is_stmt 0 view .LVU782
 3777 001e 5F4B     		ldr	r3, .L223+8
 3778 0020 1D80     		strh	r5, [r3]	@ movhi
 174:Drivers/NRF24L01/Src/MY_NRF24.c **** 
 3779              		.loc 1 174 5 is_stmt 1 view .LVU783
 174:Drivers/NRF24L01/Src/MY_NRF24.c **** 
 3780              		.loc 1 174 18 is_stmt 0 view .LVU784
 3781 0022 5F4B     		ldr	r3, .L223+12
 3782 0024 1C80     		strh	r4, [r3]	@ movhi
 177:Drivers/NRF24L01/Src/MY_NRF24.c ****     NRF24_ce(0);
 3783              		.loc 1 177 5 is_stmt 1 view .LVU785
 3784 0026 0120     		movs	r0, #1
 3785 0028 FFF7FEFF 		bl	NRF24_csn
 3786              	.LVL373:
 178:Drivers/NRF24L01/Src/MY_NRF24.c ****     // 5 ms initial delay
 3787              		.loc 1 178 5 view .LVU786
 3788 002c 0020     		movs	r0, #0
 3789 002e FFF7FEFF 		bl	NRF24_ce
 3790              	.LVL374:
 180:Drivers/NRF24L01/Src/MY_NRF24.c **** 
 3791              		.loc 1 180 5 view .LVU787
 3792 0032 0520     		movs	r0, #5
 3793 0034 FFF7FEFF 		bl	HAL_Delay
 3794              	.LVL375:
 183:Drivers/NRF24L01/Src/MY_NRF24.c ****     NRF24_write_register(0x01, 0x3f);
 3795              		.loc 1 183 5 view .LVU788
 3796 0038 0821     		movs	r1, #8
 3797 003a 0020     		movs	r0, #0
 3798 003c FFF7FEFF 		bl	NRF24_write_register
 3799              	.LVL376:
 184:Drivers/NRF24L01/Src/MY_NRF24.c ****     NRF24_write_register(0x02, 0x03);
ARM GAS  C:\Users\sangt\AppData\Local\Temp\cc5NRPvh.s 			page 87


 3800              		.loc 1 184 5 view .LVU789
 3801 0040 3F21     		movs	r1, #63
 3802 0042 0120     		movs	r0, #1
 3803 0044 FFF7FEFF 		bl	NRF24_write_register
 3804              	.LVL377:
 185:Drivers/NRF24L01/Src/MY_NRF24.c ****     NRF24_write_register(0x03, 0x03);
 3805              		.loc 1 185 5 view .LVU790
 3806 0048 0321     		movs	r1, #3
 3807 004a 0220     		movs	r0, #2
 3808 004c FFF7FEFF 		bl	NRF24_write_register
 3809              	.LVL378:
 186:Drivers/NRF24L01/Src/MY_NRF24.c ****     NRF24_write_register(0x04, 0x03);
 3810              		.loc 1 186 5 view .LVU791
 3811 0050 0321     		movs	r1, #3
 3812 0052 0846     		mov	r0, r1
 3813 0054 FFF7FEFF 		bl	NRF24_write_register
 3814              	.LVL379:
 187:Drivers/NRF24L01/Src/MY_NRF24.c ****     NRF24_write_register(0x05, 0x02);
 3815              		.loc 1 187 5 view .LVU792
 3816 0058 0321     		movs	r1, #3
 3817 005a 0420     		movs	r0, #4
 3818 005c FFF7FEFF 		bl	NRF24_write_register
 3819              	.LVL380:
 188:Drivers/NRF24L01/Src/MY_NRF24.c ****     NRF24_write_register(0x06, 0x0f);
 3820              		.loc 1 188 5 view .LVU793
 3821 0060 0221     		movs	r1, #2
 3822 0062 0520     		movs	r0, #5
 3823 0064 FFF7FEFF 		bl	NRF24_write_register
 3824              	.LVL381:
 189:Drivers/NRF24L01/Src/MY_NRF24.c ****     NRF24_write_register(0x07, 0x0e);
 3825              		.loc 1 189 5 view .LVU794
 3826 0068 0F21     		movs	r1, #15
 3827 006a 0620     		movs	r0, #6
 3828 006c FFF7FEFF 		bl	NRF24_write_register
 3829              	.LVL382:
 190:Drivers/NRF24L01/Src/MY_NRF24.c ****     NRF24_write_register(0x08, 0x00);
 3830              		.loc 1 190 5 view .LVU795
 3831 0070 0E21     		movs	r1, #14
 3832 0072 0720     		movs	r0, #7
 3833 0074 FFF7FEFF 		bl	NRF24_write_register
 3834              	.LVL383:
 191:Drivers/NRF24L01/Src/MY_NRF24.c ****     NRF24_write_register(0x09, 0x00);
 3835              		.loc 1 191 5 view .LVU796
 3836 0078 0021     		movs	r1, #0
 3837 007a 0820     		movs	r0, #8
 3838 007c FFF7FEFF 		bl	NRF24_write_register
 3839              	.LVL384:
 192:Drivers/NRF24L01/Src/MY_NRF24.c ****     uint8_t pipeAddrVar[6];
 3840              		.loc 1 192 5 view .LVU797
 3841 0080 0021     		movs	r1, #0
 3842 0082 0920     		movs	r0, #9
 3843 0084 FFF7FEFF 		bl	NRF24_write_register
 3844              	.LVL385:
 193:Drivers/NRF24L01/Src/MY_NRF24.c ****     pipeAddrVar[4] = 0xE7;
 3845              		.loc 1 193 5 view .LVU798
 194:Drivers/NRF24L01/Src/MY_NRF24.c ****     pipeAddrVar[3] = 0xE7;
 3846              		.loc 1 194 5 view .LVU799
ARM GAS  C:\Users\sangt\AppData\Local\Temp\cc5NRPvh.s 			page 88


 194:Drivers/NRF24L01/Src/MY_NRF24.c ****     pipeAddrVar[3] = 0xE7;
 3847              		.loc 1 194 20 is_stmt 0 view .LVU800
 3848 0088 E724     		movs	r4, #231
 3849 008a 8DF80440 		strb	r4, [sp, #4]
 195:Drivers/NRF24L01/Src/MY_NRF24.c ****     pipeAddrVar[2] = 0xE7;
 3850              		.loc 1 195 5 is_stmt 1 view .LVU801
 195:Drivers/NRF24L01/Src/MY_NRF24.c ****     pipeAddrVar[2] = 0xE7;
 3851              		.loc 1 195 20 is_stmt 0 view .LVU802
 3852 008e 8DF80340 		strb	r4, [sp, #3]
 196:Drivers/NRF24L01/Src/MY_NRF24.c ****     pipeAddrVar[1] = 0xE7;
 3853              		.loc 1 196 5 is_stmt 1 view .LVU803
 196:Drivers/NRF24L01/Src/MY_NRF24.c ****     pipeAddrVar[1] = 0xE7;
 3854              		.loc 1 196 20 is_stmt 0 view .LVU804
 3855 0092 8DF80240 		strb	r4, [sp, #2]
 197:Drivers/NRF24L01/Src/MY_NRF24.c ****     pipeAddrVar[0] = 0xE7;
 3856              		.loc 1 197 5 is_stmt 1 view .LVU805
 197:Drivers/NRF24L01/Src/MY_NRF24.c ****     pipeAddrVar[0] = 0xE7;
 3857              		.loc 1 197 20 is_stmt 0 view .LVU806
 3858 0096 8DF80140 		strb	r4, [sp, #1]
 198:Drivers/NRF24L01/Src/MY_NRF24.c ****     NRF24_write_registerN(0x0A, pipeAddrVar, 5);
 3859              		.loc 1 198 5 is_stmt 1 view .LVU807
 198:Drivers/NRF24L01/Src/MY_NRF24.c ****     NRF24_write_registerN(0x0A, pipeAddrVar, 5);
 3860              		.loc 1 198 20 is_stmt 0 view .LVU808
 3861 009a 8DF80040 		strb	r4, [sp]
 199:Drivers/NRF24L01/Src/MY_NRF24.c ****     pipeAddrVar[4] = 0xC2;
 3862              		.loc 1 199 5 is_stmt 1 view .LVU809
 3863 009e 0522     		movs	r2, #5
 3864 00a0 6946     		mov	r1, sp
 3865 00a2 0A20     		movs	r0, #10
 3866 00a4 FFF7FEFF 		bl	NRF24_write_registerN
 3867              	.LVL386:
 200:Drivers/NRF24L01/Src/MY_NRF24.c ****     pipeAddrVar[3] = 0xC2;
 3868              		.loc 1 200 5 view .LVU810
 200:Drivers/NRF24L01/Src/MY_NRF24.c ****     pipeAddrVar[3] = 0xC2;
 3869              		.loc 1 200 20 is_stmt 0 view .LVU811
 3870 00a8 C223     		movs	r3, #194
 3871 00aa 8DF80430 		strb	r3, [sp, #4]
 201:Drivers/NRF24L01/Src/MY_NRF24.c ****     pipeAddrVar[2] = 0xC2;
 3872              		.loc 1 201 5 is_stmt 1 view .LVU812
 201:Drivers/NRF24L01/Src/MY_NRF24.c ****     pipeAddrVar[2] = 0xC2;
 3873              		.loc 1 201 20 is_stmt 0 view .LVU813
 3874 00ae 8DF80330 		strb	r3, [sp, #3]
 202:Drivers/NRF24L01/Src/MY_NRF24.c ****     pipeAddrVar[1] = 0xC2;
 3875              		.loc 1 202 5 is_stmt 1 view .LVU814
 202:Drivers/NRF24L01/Src/MY_NRF24.c ****     pipeAddrVar[1] = 0xC2;
 3876              		.loc 1 202 20 is_stmt 0 view .LVU815
 3877 00b2 8DF80230 		strb	r3, [sp, #2]
 203:Drivers/NRF24L01/Src/MY_NRF24.c ****     pipeAddrVar[0] = 0xC2;
 3878              		.loc 1 203 5 is_stmt 1 view .LVU816
 203:Drivers/NRF24L01/Src/MY_NRF24.c ****     pipeAddrVar[0] = 0xC2;
 3879              		.loc 1 203 20 is_stmt 0 view .LVU817
 3880 00b6 8DF80130 		strb	r3, [sp, #1]
 204:Drivers/NRF24L01/Src/MY_NRF24.c ****     NRF24_write_registerN(0x0B, pipeAddrVar, 5);
 3881              		.loc 1 204 5 is_stmt 1 view .LVU818
 204:Drivers/NRF24L01/Src/MY_NRF24.c ****     NRF24_write_registerN(0x0B, pipeAddrVar, 5);
 3882              		.loc 1 204 20 is_stmt 0 view .LVU819
 3883 00ba 8DF80030 		strb	r3, [sp]
ARM GAS  C:\Users\sangt\AppData\Local\Temp\cc5NRPvh.s 			page 89


 205:Drivers/NRF24L01/Src/MY_NRF24.c ****     NRF24_write_register(0x0C, 0xC3);
 3884              		.loc 1 205 5 is_stmt 1 view .LVU820
 3885 00be 0522     		movs	r2, #5
 3886 00c0 6946     		mov	r1, sp
 3887 00c2 0B20     		movs	r0, #11
 3888 00c4 FFF7FEFF 		bl	NRF24_write_registerN
 3889              	.LVL387:
 206:Drivers/NRF24L01/Src/MY_NRF24.c ****     NRF24_write_register(0x0D, 0xC4);
 3890              		.loc 1 206 5 view .LVU821
 3891 00c8 C321     		movs	r1, #195
 3892 00ca 0C20     		movs	r0, #12
 3893 00cc FFF7FEFF 		bl	NRF24_write_register
 3894              	.LVL388:
 207:Drivers/NRF24L01/Src/MY_NRF24.c ****     NRF24_write_register(0x0E, 0xC5);
 3895              		.loc 1 207 5 view .LVU822
 3896 00d0 C421     		movs	r1, #196
 3897 00d2 0D20     		movs	r0, #13
 3898 00d4 FFF7FEFF 		bl	NRF24_write_register
 3899              	.LVL389:
 208:Drivers/NRF24L01/Src/MY_NRF24.c ****     NRF24_write_register(0x0F, 0xC6);
 3900              		.loc 1 208 5 view .LVU823
 3901 00d8 C521     		movs	r1, #197
 3902 00da 0E20     		movs	r0, #14
 3903 00dc FFF7FEFF 		bl	NRF24_write_register
 3904              	.LVL390:
 209:Drivers/NRF24L01/Src/MY_NRF24.c ****     pipeAddrVar[4] = 0xE7;
 3905              		.loc 1 209 5 view .LVU824
 3906 00e0 C621     		movs	r1, #198
 3907 00e2 0F20     		movs	r0, #15
 3908 00e4 FFF7FEFF 		bl	NRF24_write_register
 3909              	.LVL391:
 210:Drivers/NRF24L01/Src/MY_NRF24.c ****     pipeAddrVar[3] = 0xE7;
 3910              		.loc 1 210 5 view .LVU825
 210:Drivers/NRF24L01/Src/MY_NRF24.c ****     pipeAddrVar[3] = 0xE7;
 3911              		.loc 1 210 20 is_stmt 0 view .LVU826
 3912 00e8 8DF80440 		strb	r4, [sp, #4]
 211:Drivers/NRF24L01/Src/MY_NRF24.c ****     pipeAddrVar[2] = 0xE7;
 3913              		.loc 1 211 5 is_stmt 1 view .LVU827
 211:Drivers/NRF24L01/Src/MY_NRF24.c ****     pipeAddrVar[2] = 0xE7;
 3914              		.loc 1 211 20 is_stmt 0 view .LVU828
 3915 00ec 8DF80340 		strb	r4, [sp, #3]
 212:Drivers/NRF24L01/Src/MY_NRF24.c ****     pipeAddrVar[1] = 0xE7;
 3916              		.loc 1 212 5 is_stmt 1 view .LVU829
 212:Drivers/NRF24L01/Src/MY_NRF24.c ****     pipeAddrVar[1] = 0xE7;
 3917              		.loc 1 212 20 is_stmt 0 view .LVU830
 3918 00f0 8DF80240 		strb	r4, [sp, #2]
 213:Drivers/NRF24L01/Src/MY_NRF24.c ****     pipeAddrVar[0] = 0xE7;
 3919              		.loc 1 213 5 is_stmt 1 view .LVU831
 213:Drivers/NRF24L01/Src/MY_NRF24.c ****     pipeAddrVar[0] = 0xE7;
 3920              		.loc 1 213 20 is_stmt 0 view .LVU832
 3921 00f4 8DF80140 		strb	r4, [sp, #1]
 214:Drivers/NRF24L01/Src/MY_NRF24.c ****     NRF24_write_registerN(0x10, pipeAddrVar, 5);
 3922              		.loc 1 214 5 is_stmt 1 view .LVU833
 214:Drivers/NRF24L01/Src/MY_NRF24.c ****     NRF24_write_registerN(0x10, pipeAddrVar, 5);
 3923              		.loc 1 214 20 is_stmt 0 view .LVU834
 3924 00f8 8DF80040 		strb	r4, [sp]
 215:Drivers/NRF24L01/Src/MY_NRF24.c ****     NRF24_write_register(0x11, 0);
ARM GAS  C:\Users\sangt\AppData\Local\Temp\cc5NRPvh.s 			page 90


 3925              		.loc 1 215 5 is_stmt 1 view .LVU835
 3926 00fc 0522     		movs	r2, #5
 3927 00fe 6946     		mov	r1, sp
 3928 0100 1020     		movs	r0, #16
 3929 0102 FFF7FEFF 		bl	NRF24_write_registerN
 3930              	.LVL392:
 216:Drivers/NRF24L01/Src/MY_NRF24.c ****     NRF24_write_register(0x12, 0);
 3931              		.loc 1 216 5 view .LVU836
 3932 0106 0021     		movs	r1, #0
 3933 0108 1120     		movs	r0, #17
 3934 010a FFF7FEFF 		bl	NRF24_write_register
 3935              	.LVL393:
 217:Drivers/NRF24L01/Src/MY_NRF24.c ****     NRF24_write_register(0x13, 0);
 3936              		.loc 1 217 5 view .LVU837
 3937 010e 0021     		movs	r1, #0
 3938 0110 1220     		movs	r0, #18
 3939 0112 FFF7FEFF 		bl	NRF24_write_register
 3940              	.LVL394:
 218:Drivers/NRF24L01/Src/MY_NRF24.c ****     NRF24_write_register(0x14, 0);
 3941              		.loc 1 218 5 view .LVU838
 3942 0116 0021     		movs	r1, #0
 3943 0118 1320     		movs	r0, #19
 3944 011a FFF7FEFF 		bl	NRF24_write_register
 3945              	.LVL395:
 219:Drivers/NRF24L01/Src/MY_NRF24.c ****     NRF24_write_register(0x15, 0);
 3946              		.loc 1 219 5 view .LVU839
 3947 011e 0021     		movs	r1, #0
 3948 0120 1420     		movs	r0, #20
 3949 0122 FFF7FEFF 		bl	NRF24_write_register
 3950              	.LVL396:
 220:Drivers/NRF24L01/Src/MY_NRF24.c ****     NRF24_write_register(0x16, 0);
